	.text
	.file	"new2.cpp"
	.file	1 "/usr/bin/../lib64/gcc/x86_64-pc-linux-gnu/8.0.0/../../../../include/c++/8.0.0/x86_64-pc-linux-gnu/bits" "atomic_word.h"
	.file	2 "/usr/bin/../lib64/gcc/x86_64-pc-linux-gnu/8.0.0/../../../../include/c++/8.0.0/bits" "ios_base.h"
	.file	3 "/usr/bin/../lib64/gcc/x86_64-pc-linux-gnu/8.0.0/../../../../include/c++/8.0.0" "iostream"
	.file	4 "." "new2.cpp"
	.file	5 "/usr/bin/../lib64/gcc/x86_64-pc-linux-gnu/8.0.0/../../../../include/c++/8.0.0" "tuple"
	.file	6 "/usr/bin/../lib64/gcc/x86_64-pc-linux-gnu/8.0.0/../../../../include/c++/8.0.0/bits" "uses_allocator.h"
	.file	7 "/usr/bin/../lib64/gcc/x86_64-pc-linux-gnu/8.0.0/../../../../include/c++/8.0.0" "type_traits"
	.file	8 "./../include/./orizzonte/./meta/." "constant.hpp"
	.file	9 "/usr/bin/../lib64/gcc/x86_64-pc-linux-gnu/8.0.0/../../../../include/c++/8.0.0" "utility"
	.file	10 "/usr/bin/../lib64/gcc/x86_64-pc-linux-gnu/8.0.0/../../../../include/c++/8.0.0/x86_64-pc-linux-gnu/bits" "c++config.h"
	.file	11 "./../include/./orizzonte/./meta" "sequence.hpp"
	.file	12 "./../include/./orizzonte/./meta" "type_wrapper.hpp"
	.file	13 "/usr/bin/../lib64/gcc/x86_64-pc-linux-gnu/8.0.0/../../../../include/c++/8.0.0/bits" "atomic_base.h"
	.file	14 "/usr/bin/../lib64/gcc/x86_64-pc-linux-gnu/8.0.0/../../../../include/c++/8.0.0" "atomic"
	.file	15 "./../include/./orizzonte/./utility" "movable_atomic.hpp"
	.file	16 "./../include/./orizzonte/./utility" "aligned_storage.hpp"
	.file	17 "/usr/bin/../lib64/gcc/x86_64-pc-linux-gnu/8.0.0/../../../../include/c++/8.0.0/ext" "concurrence.h"
	.file	18 "/usr/bin/../lib64/gcc/x86_64-pc-linux-gnu/8.0.0/../../../../include/c++/8.0.0" "chrono"
	.file	19 "/usr/include/bits" "types.h"
	.file	20 "/usr/include" "stdint.h"
	.file	21 "/usr/bin/../lib64/gcc/x86_64-pc-linux-gnu/8.0.0/../../../../include/c++/8.0.0" "ratio"
	.file	22 "/usr/bin/../lib64/gcc/x86_64-pc-linux-gnu/8.0.0/../../../../include/c++/8.0.0/bits" "invoke.h"
	.file	23 "/usr/bin/../lib64/gcc/x86_64-pc-linux-gnu/8.0.0/../../../../include/c++/8.0.0/bits" "postypes.h"
	.file	24 "/usr/include/bits/types" "time_t.h"
	.file	25 "/usr/bin/../lib64/gcc/x86_64-pc-linux-gnu/8.0.0/../../../../include/c++/8.0.0/bits" "exception_ptr.h"
	.file	26 "/usr/include/bits" "stdint-intn.h"
	.file	27 "/usr/bin/../lib64/gcc/x86_64-pc-linux-gnu/8.0.0/../../../../include/c++/8.0.0" "cstdint"
	.file	28 "/usr/include/bits" "stdint-uintn.h"
	.file	29 "/usr/include/bits/types" "clock_t.h"
	.file	30 "/usr/bin/../lib64/gcc/x86_64-pc-linux-gnu/8.0.0/../../../../include/c++/8.0.0" "ctime"
	.file	31 "/usr/include" "time.h"
	.file	32 "/usr/lib/clang/7.0.0/include" "stddef.h"
	.file	33 "/usr/include/bits/types" "__mbstate_t.h"
	.file	34 "/usr/include/bits/types" "mbstate_t.h"
	.file	35 "/usr/bin/../lib64/gcc/x86_64-pc-linux-gnu/8.0.0/../../../../include/c++/8.0.0" "cwchar"
	.file	36 "/usr/include/bits/types" "wint_t.h"
	.file	37 "/usr/include" "wchar.h"
	.file	38 "/usr/include" "libio.h"
	.file	39 "/usr/include/bits/types" "__FILE.h"
	.file	40 "/usr/bin/../lib64/gcc/x86_64-pc-linux-gnu/8.0.0/../../../../include/c++/8.0.0/debug" "debug.h"
	.file	41 "/usr/bin/../lib64/gcc/x86_64-pc-linux-gnu/8.0.0/../../../../include/c++/8.0.0/ext" "new_allocator.h"
	.file	42 "/usr/bin/../lib64/gcc/x86_64-pc-linux-gnu/8.0.0/../../../../include/c++/8.0.0" "clocale"
	.file	43 "/usr/include" "locale.h"
	.file	44 "/usr/include" "ctype.h"
	.file	45 "/usr/bin/../lib64/gcc/x86_64-pc-linux-gnu/8.0.0/../../../../include/c++/8.0.0" "cctype"
	.file	46 "/usr/include" "stdlib.h"
	.file	47 "/usr/bin/../lib64/gcc/x86_64-pc-linux-gnu/8.0.0/../../../../include/c++/8.0.0/bits" "std_abs.h"
	.file	48 "/usr/bin/../lib64/gcc/x86_64-pc-linux-gnu/8.0.0/../../../../include/c++/8.0.0" "cstdlib"
	.file	49 "/usr/include/bits" "stdlib-float.h"
	.file	50 "/usr/include/bits" "stdlib-bsearch.h"
	.file	51 "/usr/include/bits/types" "FILE.h"
	.file	52 "/usr/bin/../lib64/gcc/x86_64-pc-linux-gnu/8.0.0/../../../../include/c++/8.0.0" "cstdio"
	.file	53 "/usr/include" "_G_config.h"
	.file	54 "/usr/include" "stdio.h"
	.file	55 "/usr/include/bits" "stdio.h"
	.file	56 "/usr/bin/../lib64/gcc/x86_64-pc-linux-gnu/8.0.0/../../../../include/c++/8.0.0/bits" "shared_ptr_base.h"
	.file	57 "/usr/include" "wctype.h"
	.file	58 "/usr/bin/../lib64/gcc/x86_64-pc-linux-gnu/8.0.0/../../../../include/c++/8.0.0" "cwctype"
	.file	59 "/usr/include/bits" "wctype-wchar.h"
	.section	.rodata.cst16,"aM",@progbits,16
	.p2align	4               # -- Begin function main
.LCPI0_0:
	.long	0                       # 0x0
	.long	0                       # 0x0
	.long	0                       # 0x0
	.long	2                       # 0x2
.LCPI0_1:
	.long	0                       # 0x0
	.long	0                       # 0x0
	.long	2                       # 0x2
	.long	0                       # 0x0
	.text
	.globl	main
	.p2align	4, 0x90
	.type	main,@function
main:                                   # @main
.Lfunc_begin0:
	.loc	4 148 0                 # ./new2.cpp:148:0
	.cfi_startproc
	.cfi_personality 3, __gxx_personality_v0
	.cfi_lsda 3, .Lexception0
# %bb.0:
	pushq	%r15
	.cfi_def_cfa_offset 16
	pushq	%r14
	.cfi_def_cfa_offset 24
	pushq	%r12
	.cfi_def_cfa_offset 32
	pushq	%rbx
	.cfi_def_cfa_offset 40
	subq	$104, %rsp
	.cfi_def_cfa_offset 144
	.cfi_offset %rbx, -40
	.cfi_offset %r12, -32
	.cfi_offset %r14, -24
	.cfi_offset %r15, -16
.Ltmp12:
	#DEBUG_VALUE: atomic: <- 3
	#DEBUG_VALUE: atomic:__i <- 3
	#DEBUG_VALUE: __atomic_base:__i <- 3
	#DEBUG_VALUE: atomic: <- 2
	#DEBUG_VALUE: atomic:__i <- 2
	#DEBUG_VALUE: __atomic_base:__i <- 2
	#DEBUG_VALUE: atomic:__i <- 3
	#DEBUG_VALUE: __atomic_base:__i <- 3
	#DEBUG_VALUE: atomic:__i <- 2
	#DEBUG_VALUE: __atomic_base:__i <- 2
	#DEBUG_VALUE: atomic:__i <- 3
	#DEBUG_VALUE: __atomic_base:__i <- 3
	.loc	13 256 58 prologue_end  # /usr/bin/../lib64/gcc/x86_64-pc-linux-gnu/8.0.0/../../../../include/c++/8.0.0/bits/atomic_base.h:256:58
	movl	$3, 48(%rsp)
.Ltmp13:
	#DEBUG_VALUE: __atomic_base:__i <- 2
	#DEBUG_VALUE: atomic:__i <- 2
	.loc	5 133 4                 # /usr/bin/../lib64/gcc/x86_64-pc-linux-gnu/8.0.0/../../../../include/c++/8.0.0/tuple:133:4
	movaps	.LCPI0_0(%rip), %xmm0   # xmm0 = [0,0,0,2]
	movups	%xmm0, 56(%rsp)
.Ltmp14:
	#DEBUG_VALUE: __atomic_base:__i <- 2
	#DEBUG_VALUE: atomic:__i <- 2
	#DEBUG_VALUE: atomic: <- 2
	.loc	5 123 9                 # /usr/bin/../lib64/gcc/x86_64-pc-linux-gnu/8.0.0/../../../../include/c++/8.0.0/tuple:123:9
	movq	$0, 92(%rsp)
.Ltmp15:
	.loc	5 133 4                 # /usr/bin/../lib64/gcc/x86_64-pc-linux-gnu/8.0.0/../../../../include/c++/8.0.0/tuple:133:4
	movaps	.LCPI0_1(%rip), %xmm0   # xmm0 = [0,0,2,0]
	movups	%xmm0, 76(%rsp)
.Ltmp16:
	.file	60 "/usr/bin/../lib64/gcc/x86_64-pc-linux-gnu/8.0.0/../../../../include/c++/8.0.0" "thread"
	.loc	60 82 23                # /usr/bin/../lib64/gcc/x86_64-pc-linux-gnu/8.0.0/../../../../include/c++/8.0.0/thread:82:23
	movq	$0, 8(%rsp)
.Ltmp17:
	.loc	60 197 20               # /usr/bin/../lib64/gcc/x86_64-pc-linux-gnu/8.0.0/../../../../include/c++/8.0.0/thread:197:20
	movl	$48, %edi
	callq	_Znwm
.Ltmp18:
	#DEBUG_VALUE: _State_impl:this <- $rax
	.loc	60 183 2                # /usr/bin/../lib64/gcc/x86_64-pc-linux-gnu/8.0.0/../../../../include/c++/8.0.0/thread:183:2
	movq	$_ZTVNSt6thread11_State_implINS_8_InvokerISt5tupleIJZZN8node_andIJ8node_seqIS3_IJS4_I4leafIiZ4mainE3$_0ES5_IiZ4mainE3$_1EES4_IS5_IiZ4mainE3$_2ES5_IiZ4mainE3$_3EES4_IS5_IiZ4mainE3$_4ES5_IiZ4mainE3$_5EEEES5_IS2_IJiiiEEZ4mainE4$_10EES4_IS3_IJS4_IS5_IiZ4mainE3$_6ES5_IiZ4mainE3$_7EES4_IS5_IiZ4mainE3$_8ES5_IiZ4mainE3$_9EEEES5_IS2_IJiiEEZ4mainE4$_11EEEE7executeI1SiZ4mainE4$_12EEvRT_OT0_OT1_ENKUlS19_RS1B_E_clISt17integral_constantImLm0EESP_EEDaS19_S1F_EUlvE_EEEEEE+16, (%rax)
	leaq	48(%rsp), %r12
.Ltmp19:
	#DEBUG_VALUE: construct<int>:this <- [DW_OP_plus_uconst 48, DW_OP_plus_uconst 40, DW_OP_stack_value] [$rsp+0]
	#DEBUG_VALUE: execute<S, int, (lambda at ./new2.cpp:196:33)>:this <- [DW_OP_plus_uconst 48] [$rsp+0]
	#DEBUG_VALUE: _Head_base:this <- [DW_OP_plus_uconst 48, DW_OP_plus_uconst 44, DW_OP_plus_uconst 4, DW_OP_stack_value] [$rsp+0]
	#DEBUG_VALUE: _Head_base:this <- [DW_OP_plus_uconst 48, DW_OP_plus_uconst 44, DW_OP_stack_value] [$rsp+0]
	#DEBUG_VALUE: _Tuple_impl:this <- [DW_OP_plus_uconst 48, DW_OP_plus_uconst 44, DW_OP_stack_value] [$rsp+0]
	#DEBUG_VALUE: _Tuple_impl:this <- [DW_OP_plus_uconst 48, DW_OP_plus_uconst 44, DW_OP_stack_value] [$rsp+0]
	#DEBUG_VALUE: tuple<int, int, true>:this <- [DW_OP_plus_uconst 48, DW_OP_plus_uconst 44, DW_OP_stack_value] [$rsp+0]
	#DEBUG_VALUE: __atomic_base:this <- [DW_OP_plus_uconst 48, DW_OP_plus_uconst 36, DW_OP_stack_value] [$rsp+0]
	#DEBUG_VALUE: atomic:this <- [DW_OP_plus_uconst 48, DW_OP_plus_uconst 36, DW_OP_stack_value] [$rsp+0]
	#DEBUG_VALUE: atomic:this <- [DW_OP_plus_uconst 48, DW_OP_plus_uconst 36, DW_OP_stack_value] [$rsp+0]
	#DEBUG_VALUE: _Head_base<int>:this <- [DW_OP_plus_uconst 48, DW_OP_plus_uconst 20, DW_OP_plus_uconst 8, DW_OP_plus_uconst 4, DW_OP_stack_value] [$rsp+0]
	#DEBUG_VALUE: _Head_base<int>:this <- [DW_OP_plus_uconst 48, DW_OP_plus_uconst 20, DW_OP_plus_uconst 8, DW_OP_stack_value] [$rsp+0]
	#DEBUG_VALUE: _Tuple_impl:this <- [DW_OP_plus_uconst 48, DW_OP_plus_uconst 20, DW_OP_plus_uconst 8, DW_OP_stack_value] [$rsp+0]
	#DEBUG_VALUE: _Tuple_impl:this <- [DW_OP_plus_uconst 48, DW_OP_plus_uconst 20, DW_OP_plus_uconst 8, DW_OP_stack_value] [$rsp+0]
	#DEBUG_VALUE: tuple:this <- [DW_OP_plus_uconst 48, DW_OP_plus_uconst 20, DW_OP_plus_uconst 8, DW_OP_stack_value] [$rsp+0]
	#DEBUG_VALUE: __atomic_base:this <- [DW_OP_plus_uconst 48, DW_OP_plus_uconst 20, DW_OP_stack_value] [$rsp+0]
	#DEBUG_VALUE: atomic:this <- [DW_OP_plus_uconst 48, DW_OP_plus_uconst 20, DW_OP_stack_value] [$rsp+0]
	#DEBUG_VALUE: movable_atomic:this <- [DW_OP_plus_uconst 48, DW_OP_plus_uconst 20, DW_OP_stack_value] [$rsp+0]
	#DEBUG_VALUE: node_and:this <- [DW_OP_plus_uconst 48, DW_OP_plus_uconst 20, DW_OP_stack_value] [$rsp+0]
	#DEBUG_VALUE: node_seq:this <- [DW_OP_plus_uconst 48, DW_OP_plus_uconst 20, DW_OP_stack_value] [$rsp+0]
	#DEBUG_VALUE: _Head_base<int>:this <- [DW_OP_plus_uconst 48, DW_OP_plus_uconst 8, DW_OP_plus_uconst 8, DW_OP_stack_value] [$rsp+0]
	#DEBUG_VALUE: _Head_base<int>:this <- [DW_OP_plus_uconst 48, DW_OP_plus_uconst 8, DW_OP_plus_uconst 4, DW_OP_stack_value] [$rsp+0]
	#DEBUG_VALUE: _Head_base<int>:this <- [DW_OP_plus_uconst 48, DW_OP_plus_uconst 8, DW_OP_stack_value] [$rsp+0]
	#DEBUG_VALUE: _Tuple_impl:this <- [DW_OP_plus_uconst 48, DW_OP_plus_uconst 8, DW_OP_stack_value] [$rsp+0]
	#DEBUG_VALUE: _Tuple_impl:this <- [DW_OP_plus_uconst 48, DW_OP_plus_uconst 8, DW_OP_stack_value] [$rsp+0]
	#DEBUG_VALUE: _Tuple_impl:this <- [DW_OP_plus_uconst 48, DW_OP_plus_uconst 8, DW_OP_stack_value] [$rsp+0]
	#DEBUG_VALUE: tuple:this <- [DW_OP_plus_uconst 48, DW_OP_plus_uconst 8, DW_OP_stack_value] [$rsp+0]
	#DEBUG_VALUE: __atomic_base:this <- [DW_OP_plus_uconst 48, DW_OP_stack_value] [$rsp+0]
	#DEBUG_VALUE: atomic:this <- [DW_OP_plus_uconst 48, DW_OP_stack_value] [$rsp+0]
	#DEBUG_VALUE: movable_atomic:this <- [DW_OP_plus_uconst 48, DW_OP_stack_value] [$rsp+0]
	#DEBUG_VALUE: node_and:this <- [DW_OP_plus_uconst 48, DW_OP_stack_value] [$rsp+0]
	#DEBUG_VALUE: node_seq:this <- [DW_OP_plus_uconst 48, DW_OP_stack_value] [$rsp+0]
	#DEBUG_VALUE: node_and:this <- [DW_OP_plus_uconst 48] [$rsp+0]
	#DEBUG_VALUE: main:total <- [DW_OP_plus_uconst 48] [$rsp+0]
	#DEBUG_VALUE: _Invoker:this <- [DW_OP_plus_uconst 8, DW_OP_stack_value] $rax
	#DEBUG_VALUE: tuple:this <- [DW_OP_plus_uconst 8, DW_OP_stack_value] $rax
	#DEBUG_VALUE: _Tuple_impl:this <- [DW_OP_plus_uconst 8, DW_OP_stack_value] $rax
	#DEBUG_VALUE: _Head_base<(lambda at ./new2.cpp:107:23)>:this <- [DW_OP_plus_uconst 8, DW_OP_stack_value] $rax
	.loc	5 133 4                 # /usr/bin/../lib64/gcc/x86_64-pc-linux-gnu/8.0.0/../../../../include/c++/8.0.0/tuple:133:4
	movq	%r12, 16(%rax)
	movq	%r12, 24(%rax)
	leaq	16(%rsp), %r14
.Ltmp20:
	#DEBUG_VALUE: execute<S, int, (lambda at ./new2.cpp:196:33)>:scheduler <- [DW_OP_plus_uconst 16] [$rsp+0]
	#DEBUG_VALUE: main:scheduler <- [DW_OP_plus_uconst 16] [$rsp+0]
	movq	%r14, 32(%rax)
	leaq	24(%rsp), %r15
	movq	%r15, 40(%rax)
.Ltmp21:
	#DEBUG_VALUE: unique_ptr<std::default_delete<std::thread::_State>, void>:__p <- $rax
	#DEBUG_VALUE: __uniq_ptr_impl:__p <- $rax
	.file	61 "/usr/bin/../lib64/gcc/x86_64-pc-linux-gnu/8.0.0/../../../../include/c++/8.0.0/bits" "unique_ptr.h"
	.loc	61 143 56               # /usr/bin/../lib64/gcc/x86_64-pc-linux-gnu/8.0.0/../../../../include/c++/8.0.0/bits/unique_ptr.h:143:56
	movq	%rax, 32(%rsp)
.Ltmp0:
	leaq	8(%rsp), %rdi
.Ltmp22:
	#DEBUG_VALUE: id:this <- [DW_OP_plus_uconst 8, DW_OP_stack_value] [$rsp+0]
	#DEBUG_VALUE: thread<(lambda at ./new2.cpp:107:23)>:this <- [DW_OP_plus_uconst 8] [$rsp+0]
	.loc	61 0 56 is_stmt 0       # /usr/bin/../lib64/gcc/x86_64-pc-linux-gnu/8.0.0/../../../../include/c++/8.0.0/bits/unique_ptr.h:0:56
	leaq	32(%rsp), %rsi
.Ltmp23:
	#DEBUG_VALUE: __uniq_ptr_impl:this <- [DW_OP_plus_uconst 32, DW_OP_stack_value] [$rsp+0]
	#DEBUG_VALUE: unique_ptr<std::default_delete<std::thread::_State>, void>:this <- [DW_OP_plus_uconst 32] [$rsp+0]
	.loc	60 126 9 is_stmt 1      # /usr/bin/../lib64/gcc/x86_64-pc-linux-gnu/8.0.0/../../../../include/c++/8.0.0/thread:126:9
	movl	$pthread_create, %edx
.Ltmp24:
	#DEBUG_VALUE: __depend <- $rdx
	callq	_ZNSt6thread15_M_start_threadESt10unique_ptrINS_6_StateESt14default_deleteIS1_EEPFvvE
.Ltmp25:
.Ltmp1:
# %bb.1:
	#DEBUG_VALUE: thread<(lambda at ./new2.cpp:107:23)>:this <- [DW_OP_plus_uconst 8] [$rsp+0]
	#DEBUG_VALUE: main:scheduler <- [DW_OP_plus_uconst 16] [$rsp+0]
	#DEBUG_VALUE: execute<S, int, (lambda at ./new2.cpp:196:33)>:scheduler <- [DW_OP_plus_uconst 16] [$rsp+0]
	#DEBUG_VALUE: main:total <- [DW_OP_plus_uconst 48] [$rsp+0]
	#DEBUG_VALUE: execute<S, int, (lambda at ./new2.cpp:196:33)>:this <- [DW_OP_plus_uconst 48] [$rsp+0]
	.loc	61 273 6                # /usr/bin/../lib64/gcc/x86_64-pc-linux-gnu/8.0.0/../../../../include/c++/8.0.0/bits/unique_ptr.h:273:6
	movq	32(%rsp), %rdi
.Ltmp26:
	#DEBUG_VALUE: operator():__ptr <- $rdi
	.loc	61 273 12 is_stmt 0     # /usr/bin/../lib64/gcc/x86_64-pc-linux-gnu/8.0.0/../../../../include/c++/8.0.0/bits/unique_ptr.h:273:12
	testq	%rdi, %rdi
.Ltmp27:
	.loc	61 273 6                # /usr/bin/../lib64/gcc/x86_64-pc-linux-gnu/8.0.0/../../../../include/c++/8.0.0/bits/unique_ptr.h:273:6
	je	.LBB0_3
.Ltmp28:
# %bb.2:
	#DEBUG_VALUE: operator():__ptr <- $rdi
	#DEBUG_VALUE: thread<(lambda at ./new2.cpp:107:23)>:this <- [DW_OP_plus_uconst 8] [$rsp+0]
	#DEBUG_VALUE: main:scheduler <- [DW_OP_plus_uconst 16] [$rsp+0]
	#DEBUG_VALUE: execute<S, int, (lambda at ./new2.cpp:196:33)>:scheduler <- [DW_OP_plus_uconst 16] [$rsp+0]
	#DEBUG_VALUE: main:total <- [DW_OP_plus_uconst 48] [$rsp+0]
	#DEBUG_VALUE: execute<S, int, (lambda at ./new2.cpp:196:33)>:this <- [DW_OP_plus_uconst 48] [$rsp+0]
	.loc	61 81 2 is_stmt 1       # /usr/bin/../lib64/gcc/x86_64-pc-linux-gnu/8.0.0/../../../../include/c++/8.0.0/bits/unique_ptr.h:81:2
	movq	(%rdi), %rax
	callq	*8(%rax)
.Ltmp29:
.LBB0_3:
	#DEBUG_VALUE: main:scheduler <- [DW_OP_plus_uconst 16] [$rsp+0]
	#DEBUG_VALUE: execute<S, int, (lambda at ./new2.cpp:196:33)>:scheduler <- [DW_OP_plus_uconst 16] [$rsp+0]
	#DEBUG_VALUE: main:total <- [DW_OP_plus_uconst 48] [$rsp+0]
	#DEBUG_VALUE: execute<S, int, (lambda at ./new2.cpp:196:33)>:this <- [DW_OP_plus_uconst 48] [$rsp+0]
.Ltmp3:
	.loc	61 0 2 is_stmt 0        # /usr/bin/../lib64/gcc/x86_64-pc-linux-gnu/8.0.0/../../../../include/c++/8.0.0/bits/unique_ptr.h:0:2
	leaq	8(%rsp), %rdi
	.loc	4 15 35 is_stmt 1       # ./new2.cpp:15:35
	callq	_ZNSt6thread6detachEv
.Ltmp4:
.Ltmp30:
# %bb.4:
	#DEBUG_VALUE: main:scheduler <- [DW_OP_plus_uconst 16] [$rsp+0]
	#DEBUG_VALUE: execute<S, int, (lambda at ./new2.cpp:196:33)>:scheduler <- [DW_OP_plus_uconst 16] [$rsp+0]
	#DEBUG_VALUE: main:total <- [DW_OP_plus_uconst 48] [$rsp+0]
	#DEBUG_VALUE: execute<S, int, (lambda at ./new2.cpp:196:33)>:this <- [DW_OP_plus_uconst 48] [$rsp+0]
	#DEBUG_VALUE: operator==:__y <- 0
	.loc	60 276 26               # /usr/bin/../lib64/gcc/x86_64-pc-linux-gnu/8.0.0/../../../../include/c++/8.0.0/thread:276:26
	cmpq	$0, 8(%rsp)
.Ltmp31:
	.loc	60 134 11               # /usr/bin/../lib64/gcc/x86_64-pc-linux-gnu/8.0.0/../../../../include/c++/8.0.0/thread:134:11
	jne	.LBB0_5
.Ltmp32:
# %bb.12:
	#DEBUG_VALUE: main:scheduler <- [DW_OP_plus_uconst 16] [$rsp+0]
	#DEBUG_VALUE: execute<S, int, (lambda at ./new2.cpp:196:33)>:scheduler <- [DW_OP_plus_uconst 16] [$rsp+0]
	#DEBUG_VALUE: main:total <- [DW_OP_plus_uconst 48] [$rsp+0]
	#DEBUG_VALUE: execute<S, int, (lambda at ./new2.cpp:196:33)>:this <- [DW_OP_plus_uconst 48] [$rsp+0]
	.loc	4 123 72                # ./new2.cpp:123:72
	leaq	68(%rsp), %rbx
.Ltmp33:
	#DEBUG_VALUE: operator()<std::integral_constant<unsigned long, 1>, node_seq<node_and<node_seq<leaf<int, (lambda at ./new2.cpp:163:15)>, leaf<int, (lambda at ./new2.cpp:164:15)> >, node_seq<leaf<int, (lambda at ./new2.cpp:166:15)>, leaf<int, (lambda at ./new2.cpp:167:15)> > >, leaf<std::tuple<int, int>, (lambda at ./new2.cpp:190:40)> > >:f <- $rbx
	.loc	60 82 23                # /usr/bin/../lib64/gcc/x86_64-pc-linux-gnu/8.0.0/../../../../include/c++/8.0.0/thread:82:23
	movq	$0, 8(%rsp)
.Ltmp34:
	.loc	60 197 20               # /usr/bin/../lib64/gcc/x86_64-pc-linux-gnu/8.0.0/../../../../include/c++/8.0.0/thread:197:20
	movl	$48, %edi
	callq	_Znwm
.Ltmp35:
	#DEBUG_VALUE: _State_impl:this <- $rax
	.loc	60 183 2                # /usr/bin/../lib64/gcc/x86_64-pc-linux-gnu/8.0.0/../../../../include/c++/8.0.0/thread:183:2
	movq	$_ZTVNSt6thread11_State_implINS_8_InvokerISt5tupleIJZZN8node_andIJ8node_seqIS3_IJS4_I4leafIiZ4mainE3$_0ES5_IiZ4mainE3$_1EES4_IS5_IiZ4mainE3$_2ES5_IiZ4mainE3$_3EES4_IS5_IiZ4mainE3$_4ES5_IiZ4mainE3$_5EEEES5_IS2_IJiiiEEZ4mainE4$_10EES4_IS3_IJS4_IS5_IiZ4mainE3$_6ES5_IiZ4mainE3$_7EES4_IS5_IiZ4mainE3$_8ES5_IiZ4mainE3$_9EEEES5_IS2_IJiiEEZ4mainE4$_11EEEE7executeI1SiZ4mainE4$_12EEvRT_OT0_OT1_ENKUlS19_RS1B_E_clISt17integral_constantImLm1EES14_EEDaS19_S1F_EUlvE_EEEEEE+16, (%rax)
.Ltmp36:
	#DEBUG_VALUE: _Invoker:this <- [DW_OP_plus_uconst 8, DW_OP_stack_value] $rax
	#DEBUG_VALUE: tuple:this <- [DW_OP_plus_uconst 8, DW_OP_stack_value] $rax
	#DEBUG_VALUE: _Tuple_impl:this <- [DW_OP_plus_uconst 8, DW_OP_stack_value] $rax
	#DEBUG_VALUE: _Head_base<(lambda at ./new2.cpp:107:23)>:this <- [DW_OP_plus_uconst 8, DW_OP_stack_value] $rax
	.loc	5 133 4                 # /usr/bin/../lib64/gcc/x86_64-pc-linux-gnu/8.0.0/../../../../include/c++/8.0.0/tuple:133:4
	movq	%r12, 16(%rax)
	movq	%rbx, 24(%rax)
	movq	%r14, 32(%rax)
	movq	%r15, 40(%rax)
.Ltmp37:
	#DEBUG_VALUE: unique_ptr<std::default_delete<std::thread::_State>, void>:__p <- $rax
	#DEBUG_VALUE: __uniq_ptr_impl:__p <- $rax
	.loc	61 143 56               # /usr/bin/../lib64/gcc/x86_64-pc-linux-gnu/8.0.0/../../../../include/c++/8.0.0/bits/unique_ptr.h:143:56
	movq	%rax, 32(%rsp)
.Ltmp6:
	leaq	8(%rsp), %rdi
.Ltmp38:
	#DEBUG_VALUE: id:this <- [DW_OP_plus_uconst 8, DW_OP_stack_value] [$rsp+0]
	#DEBUG_VALUE: thread<(lambda at ./new2.cpp:107:23)>:this <- [DW_OP_plus_uconst 8] [$rsp+0]
	.loc	61 0 56 is_stmt 0       # /usr/bin/../lib64/gcc/x86_64-pc-linux-gnu/8.0.0/../../../../include/c++/8.0.0/bits/unique_ptr.h:0:56
	leaq	32(%rsp), %rsi
.Ltmp39:
	#DEBUG_VALUE: __uniq_ptr_impl:this <- [DW_OP_plus_uconst 32, DW_OP_stack_value] [$rsp+0]
	#DEBUG_VALUE: unique_ptr<std::default_delete<std::thread::_State>, void>:this <- [DW_OP_plus_uconst 32] [$rsp+0]
	.loc	60 126 9 is_stmt 1      # /usr/bin/../lib64/gcc/x86_64-pc-linux-gnu/8.0.0/../../../../include/c++/8.0.0/thread:126:9
	movl	$pthread_create, %edx
.Ltmp40:
	#DEBUG_VALUE: __depend <- $rdx
	callq	_ZNSt6thread15_M_start_threadESt10unique_ptrINS_6_StateESt14default_deleteIS1_EEPFvvE
.Ltmp41:
.Ltmp7:
# %bb.13:
	#DEBUG_VALUE: thread<(lambda at ./new2.cpp:107:23)>:this <- [DW_OP_plus_uconst 8] [$rsp+0]
	#DEBUG_VALUE: operator()<std::integral_constant<unsigned long, 1>, node_seq<node_and<node_seq<leaf<int, (lambda at ./new2.cpp:163:15)>, leaf<int, (lambda at ./new2.cpp:164:15)> >, node_seq<leaf<int, (lambda at ./new2.cpp:166:15)>, leaf<int, (lambda at ./new2.cpp:167:15)> > >, leaf<std::tuple<int, int>, (lambda at ./new2.cpp:190:40)> > >:f <- $rbx
	#DEBUG_VALUE: main:scheduler <- [DW_OP_plus_uconst 16] [$rsp+0]
	#DEBUG_VALUE: execute<S, int, (lambda at ./new2.cpp:196:33)>:scheduler <- [DW_OP_plus_uconst 16] [$rsp+0]
	#DEBUG_VALUE: main:total <- [DW_OP_plus_uconst 48] [$rsp+0]
	#DEBUG_VALUE: execute<S, int, (lambda at ./new2.cpp:196:33)>:this <- [DW_OP_plus_uconst 48] [$rsp+0]
	.loc	61 273 6                # /usr/bin/../lib64/gcc/x86_64-pc-linux-gnu/8.0.0/../../../../include/c++/8.0.0/bits/unique_ptr.h:273:6
	movq	32(%rsp), %rdi
.Ltmp42:
	#DEBUG_VALUE: operator():__ptr <- $rdi
	.loc	61 273 12 is_stmt 0     # /usr/bin/../lib64/gcc/x86_64-pc-linux-gnu/8.0.0/../../../../include/c++/8.0.0/bits/unique_ptr.h:273:12
	testq	%rdi, %rdi
.Ltmp43:
	.loc	61 273 6                # /usr/bin/../lib64/gcc/x86_64-pc-linux-gnu/8.0.0/../../../../include/c++/8.0.0/bits/unique_ptr.h:273:6
	je	.LBB0_15
.Ltmp44:
# %bb.14:
	#DEBUG_VALUE: operator():__ptr <- $rdi
	#DEBUG_VALUE: thread<(lambda at ./new2.cpp:107:23)>:this <- [DW_OP_plus_uconst 8] [$rsp+0]
	#DEBUG_VALUE: operator()<std::integral_constant<unsigned long, 1>, node_seq<node_and<node_seq<leaf<int, (lambda at ./new2.cpp:163:15)>, leaf<int, (lambda at ./new2.cpp:164:15)> >, node_seq<leaf<int, (lambda at ./new2.cpp:166:15)>, leaf<int, (lambda at ./new2.cpp:167:15)> > >, leaf<std::tuple<int, int>, (lambda at ./new2.cpp:190:40)> > >:f <- $rbx
	#DEBUG_VALUE: main:scheduler <- [DW_OP_plus_uconst 16] [$rsp+0]
	#DEBUG_VALUE: execute<S, int, (lambda at ./new2.cpp:196:33)>:scheduler <- [DW_OP_plus_uconst 16] [$rsp+0]
	#DEBUG_VALUE: main:total <- [DW_OP_plus_uconst 48] [$rsp+0]
	#DEBUG_VALUE: execute<S, int, (lambda at ./new2.cpp:196:33)>:this <- [DW_OP_plus_uconst 48] [$rsp+0]
	.loc	61 81 2 is_stmt 1       # /usr/bin/../lib64/gcc/x86_64-pc-linux-gnu/8.0.0/../../../../include/c++/8.0.0/bits/unique_ptr.h:81:2
	movq	(%rdi), %rax
	callq	*8(%rax)
.Ltmp45:
.LBB0_15:
	#DEBUG_VALUE: operator()<std::integral_constant<unsigned long, 1>, node_seq<node_and<node_seq<leaf<int, (lambda at ./new2.cpp:163:15)>, leaf<int, (lambda at ./new2.cpp:164:15)> >, node_seq<leaf<int, (lambda at ./new2.cpp:166:15)>, leaf<int, (lambda at ./new2.cpp:167:15)> > >, leaf<std::tuple<int, int>, (lambda at ./new2.cpp:190:40)> > >:f <- $rbx
	#DEBUG_VALUE: main:scheduler <- [DW_OP_plus_uconst 16] [$rsp+0]
	#DEBUG_VALUE: execute<S, int, (lambda at ./new2.cpp:196:33)>:scheduler <- [DW_OP_plus_uconst 16] [$rsp+0]
	#DEBUG_VALUE: main:total <- [DW_OP_plus_uconst 48] [$rsp+0]
	#DEBUG_VALUE: execute<S, int, (lambda at ./new2.cpp:196:33)>:this <- [DW_OP_plus_uconst 48] [$rsp+0]
.Ltmp9:
	.loc	61 0 2 is_stmt 0        # /usr/bin/../lib64/gcc/x86_64-pc-linux-gnu/8.0.0/../../../../include/c++/8.0.0/bits/unique_ptr.h:0:2
	leaq	8(%rsp), %rdi
	.loc	4 15 35 is_stmt 1       # ./new2.cpp:15:35
	callq	_ZNSt6thread6detachEv
.Ltmp10:
.Ltmp46:
# %bb.16:
	#DEBUG_VALUE: operator()<std::integral_constant<unsigned long, 1>, node_seq<node_and<node_seq<leaf<int, (lambda at ./new2.cpp:163:15)>, leaf<int, (lambda at ./new2.cpp:164:15)> >, node_seq<leaf<int, (lambda at ./new2.cpp:166:15)>, leaf<int, (lambda at ./new2.cpp:167:15)> > >, leaf<std::tuple<int, int>, (lambda at ./new2.cpp:190:40)> > >:f <- $rbx
	#DEBUG_VALUE: main:scheduler <- [DW_OP_plus_uconst 16] [$rsp+0]
	#DEBUG_VALUE: execute<S, int, (lambda at ./new2.cpp:196:33)>:scheduler <- [DW_OP_plus_uconst 16] [$rsp+0]
	#DEBUG_VALUE: main:total <- [DW_OP_plus_uconst 48] [$rsp+0]
	#DEBUG_VALUE: execute<S, int, (lambda at ./new2.cpp:196:33)>:this <- [DW_OP_plus_uconst 48] [$rsp+0]
	#DEBUG_VALUE: operator==:__y <- 0
	.loc	60 276 26               # /usr/bin/../lib64/gcc/x86_64-pc-linux-gnu/8.0.0/../../../../include/c++/8.0.0/thread:276:26
	cmpq	$0, 8(%rsp)
.Ltmp47:
	.loc	60 134 11               # /usr/bin/../lib64/gcc/x86_64-pc-linux-gnu/8.0.0/../../../../include/c++/8.0.0/thread:134:11
	jne	.LBB0_5
.Ltmp48:
# %bb.17:
	#DEBUG_VALUE: main:scheduler <- [DW_OP_plus_uconst 16] [$rsp+0]
	#DEBUG_VALUE: main:total <- [DW_OP_plus_uconst 48] [$rsp+0]
	.loc	60 368 4                # /usr/bin/../lib64/gcc/x86_64-pc-linux-gnu/8.0.0/../../../../include/c++/8.0.0/thread:368:4
	movl	$2, %eax
	movq	%rax, %xmm0
	movdqa	%xmm0, 32(%rsp)
	leaq	32(%rsp), %rbx
.Ltmp49:
	.p2align	4, 0x90
.LBB0_18:                               # =>This Inner Loop Header: Depth=1
	#DEBUG_VALUE: main:scheduler <- [DW_OP_plus_uconst 16] [$rsp+0]
	#DEBUG_VALUE: main:total <- [DW_OP_plus_uconst 48] [$rsp+0]
	.loc	60 372 9                # /usr/bin/../lib64/gcc/x86_64-pc-linux-gnu/8.0.0/../../../../include/c++/8.0.0/thread:372:9
	movq	%rbx, %rdi
	movq	%rbx, %rsi
	callq	nanosleep
	.loc	60 372 35 is_stmt 0     # /usr/bin/../lib64/gcc/x86_64-pc-linux-gnu/8.0.0/../../../../include/c++/8.0.0/thread:372:35
	cmpl	$-1, %eax
	.loc	60 372 41               # /usr/bin/../lib64/gcc/x86_64-pc-linux-gnu/8.0.0/../../../../include/c++/8.0.0/thread:372:41
	jne	.LBB0_20
.Ltmp50:
# %bb.19:                               #   in Loop: Header=BB0_18 Depth=1
	#DEBUG_VALUE: main:scheduler <- [DW_OP_plus_uconst 16] [$rsp+0]
	#DEBUG_VALUE: main:total <- [DW_OP_plus_uconst 48] [$rsp+0]
	.loc	60 372 44               # /usr/bin/../lib64/gcc/x86_64-pc-linux-gnu/8.0.0/../../../../include/c++/8.0.0/thread:372:44
	callq	__errno_location
	.loc	60 372 50               # /usr/bin/../lib64/gcc/x86_64-pc-linux-gnu/8.0.0/../../../../include/c++/8.0.0/thread:372:50
	cmpl	$4, (%rax)
	.loc	60 372 2                # /usr/bin/../lib64/gcc/x86_64-pc-linux-gnu/8.0.0/../../../../include/c++/8.0.0/thread:372:2
	je	.LBB0_18
.Ltmp51:
.LBB0_20:
	#DEBUG_VALUE: main:scheduler <- [DW_OP_plus_uconst 16] [$rsp+0]
	#DEBUG_VALUE: main:total <- [DW_OP_plus_uconst 48] [$rsp+0]
	.loc	4 199 1 is_stmt 1       # ./new2.cpp:199:1
	xorl	%eax, %eax
	addq	$104, %rsp
.Ltmp52:
	popq	%rbx
	popq	%r12
	popq	%r14
	popq	%r15
	retq
.LBB0_22:
.Ltmp53:
	#DEBUG_VALUE: main:scheduler <- [DW_OP_plus_uconst 16] [$rsp+0]
	#DEBUG_VALUE: execute<S, int, (lambda at ./new2.cpp:196:33)>:scheduler <- [DW_OP_plus_uconst 16] [$rsp+0]
	#DEBUG_VALUE: main:total <- [DW_OP_plus_uconst 48] [$rsp+0]
	#DEBUG_VALUE: execute<S, int, (lambda at ./new2.cpp:196:33)>:this <- [DW_OP_plus_uconst 48] [$rsp+0]
.Ltmp11:
	.loc	4 0 1 is_stmt 0         # ./new2.cpp:0:1
	movq	%rax, %rbx
.Ltmp54:
	#DEBUG_VALUE: operator==:__y <- 0
	.loc	60 276 26 is_stmt 1     # /usr/bin/../lib64/gcc/x86_64-pc-linux-gnu/8.0.0/../../../../include/c++/8.0.0/thread:276:26
	cmpq	$0, 8(%rsp)
.Ltmp55:
	.loc	60 134 11               # /usr/bin/../lib64/gcc/x86_64-pc-linux-gnu/8.0.0/../../../../include/c++/8.0.0/thread:134:11
	jne	.LBB0_5
	jmp	.LBB0_9
.Ltmp56:
.LBB0_21:
	#DEBUG_VALUE: main:scheduler <- [DW_OP_plus_uconst 16] [$rsp+0]
	#DEBUG_VALUE: execute<S, int, (lambda at ./new2.cpp:196:33)>:scheduler <- [DW_OP_plus_uconst 16] [$rsp+0]
	#DEBUG_VALUE: main:total <- [DW_OP_plus_uconst 48] [$rsp+0]
	#DEBUG_VALUE: execute<S, int, (lambda at ./new2.cpp:196:33)>:this <- [DW_OP_plus_uconst 48] [$rsp+0]
.Ltmp8:
	.loc	60 0 11 is_stmt 0       # /usr/bin/../lib64/gcc/x86_64-pc-linux-gnu/8.0.0/../../../../include/c++/8.0.0/thread:0:11
	movq	%rax, %rbx
.Ltmp57:
	.loc	61 273 6 is_stmt 1      # /usr/bin/../lib64/gcc/x86_64-pc-linux-gnu/8.0.0/../../../../include/c++/8.0.0/bits/unique_ptr.h:273:6
	movq	32(%rsp), %rdi
.Ltmp58:
	#DEBUG_VALUE: operator():__ptr <- $rdi
	.loc	61 273 12 is_stmt 0     # /usr/bin/../lib64/gcc/x86_64-pc-linux-gnu/8.0.0/../../../../include/c++/8.0.0/bits/unique_ptr.h:273:12
	testq	%rdi, %rdi
.Ltmp59:
	.loc	61 273 6                # /usr/bin/../lib64/gcc/x86_64-pc-linux-gnu/8.0.0/../../../../include/c++/8.0.0/bits/unique_ptr.h:273:6
	jne	.LBB0_8
	jmp	.LBB0_9
.Ltmp60:
.LBB0_10:
	#DEBUG_VALUE: main:scheduler <- [DW_OP_plus_uconst 16] [$rsp+0]
	#DEBUG_VALUE: execute<S, int, (lambda at ./new2.cpp:196:33)>:scheduler <- [DW_OP_plus_uconst 16] [$rsp+0]
	#DEBUG_VALUE: main:total <- [DW_OP_plus_uconst 48] [$rsp+0]
	#DEBUG_VALUE: execute<S, int, (lambda at ./new2.cpp:196:33)>:this <- [DW_OP_plus_uconst 48] [$rsp+0]
.Ltmp5:
	.loc	61 0 6                  # /usr/bin/../lib64/gcc/x86_64-pc-linux-gnu/8.0.0/../../../../include/c++/8.0.0/bits/unique_ptr.h:0:6
	movq	%rax, %rbx
	#DEBUG_VALUE: operator==:__y <- 0
.Ltmp61:
	.loc	60 276 26 is_stmt 1     # /usr/bin/../lib64/gcc/x86_64-pc-linux-gnu/8.0.0/../../../../include/c++/8.0.0/thread:276:26
	cmpq	$0, 8(%rsp)
.Ltmp62:
	.loc	60 134 11               # /usr/bin/../lib64/gcc/x86_64-pc-linux-gnu/8.0.0/../../../../include/c++/8.0.0/thread:134:11
	je	.LBB0_9
.Ltmp63:
.LBB0_5:
	#DEBUG_VALUE: main:scheduler <- [DW_OP_plus_uconst 16] [$rsp+0]
	#DEBUG_VALUE: execute<S, int, (lambda at ./new2.cpp:196:33)>:scheduler <- [DW_OP_plus_uconst 16] [$rsp+0]
	#DEBUG_VALUE: main:total <- [DW_OP_plus_uconst 48] [$rsp+0]
	#DEBUG_VALUE: execute<S, int, (lambda at ./new2.cpp:196:33)>:this <- [DW_OP_plus_uconst 48] [$rsp+0]
	.loc	60 135 2                # /usr/bin/../lib64/gcc/x86_64-pc-linux-gnu/8.0.0/../../../../include/c++/8.0.0/thread:135:2
	callq	_ZSt9terminatev
.Ltmp64:
.LBB0_6:
	#DEBUG_VALUE: thread<(lambda at ./new2.cpp:107:23)>:this <- [DW_OP_plus_uconst 8] [$rsp+0]
	#DEBUG_VALUE: main:scheduler <- [DW_OP_plus_uconst 16] [$rsp+0]
	#DEBUG_VALUE: execute<S, int, (lambda at ./new2.cpp:196:33)>:scheduler <- [DW_OP_plus_uconst 16] [$rsp+0]
	#DEBUG_VALUE: main:total <- [DW_OP_plus_uconst 48] [$rsp+0]
	#DEBUG_VALUE: execute<S, int, (lambda at ./new2.cpp:196:33)>:this <- [DW_OP_plus_uconst 48] [$rsp+0]
.Ltmp2:
	.loc	60 0 2 is_stmt 0        # /usr/bin/../lib64/gcc/x86_64-pc-linux-gnu/8.0.0/../../../../include/c++/8.0.0/thread:0:2
	movq	%rax, %rbx
.Ltmp65:
	.loc	61 273 6 is_stmt 1      # /usr/bin/../lib64/gcc/x86_64-pc-linux-gnu/8.0.0/../../../../include/c++/8.0.0/bits/unique_ptr.h:273:6
	movq	32(%rsp), %rdi
.Ltmp66:
	#DEBUG_VALUE: operator():__ptr <- $rdi
	.loc	61 273 12 is_stmt 0     # /usr/bin/../lib64/gcc/x86_64-pc-linux-gnu/8.0.0/../../../../include/c++/8.0.0/bits/unique_ptr.h:273:12
	testq	%rdi, %rdi
.Ltmp67:
	.loc	61 273 6                # /usr/bin/../lib64/gcc/x86_64-pc-linux-gnu/8.0.0/../../../../include/c++/8.0.0/bits/unique_ptr.h:273:6
	je	.LBB0_9
.Ltmp68:
.LBB0_8:
	#DEBUG_VALUE: operator():__ptr <- $rdi
	#DEBUG_VALUE: main:scheduler <- [DW_OP_plus_uconst 16] [$rsp+0]
	#DEBUG_VALUE: execute<S, int, (lambda at ./new2.cpp:196:33)>:scheduler <- [DW_OP_plus_uconst 16] [$rsp+0]
	#DEBUG_VALUE: main:total <- [DW_OP_plus_uconst 48] [$rsp+0]
	#DEBUG_VALUE: execute<S, int, (lambda at ./new2.cpp:196:33)>:this <- [DW_OP_plus_uconst 48] [$rsp+0]
	.loc	61 81 2 is_stmt 1       # /usr/bin/../lib64/gcc/x86_64-pc-linux-gnu/8.0.0/../../../../include/c++/8.0.0/bits/unique_ptr.h:81:2
	movq	(%rdi), %rax
	callq	*8(%rax)
.Ltmp69:
.LBB0_9:
	#DEBUG_VALUE: main:scheduler <- [DW_OP_plus_uconst 16] [$rsp+0]
	#DEBUG_VALUE: main:total <- [DW_OP_plus_uconst 48] [$rsp+0]
	.loc	61 0 2 is_stmt 0        # /usr/bin/../lib64/gcc/x86_64-pc-linux-gnu/8.0.0/../../../../include/c++/8.0.0/bits/unique_ptr.h:0:2
	movq	%rbx, %rdi
	callq	_Unwind_Resume
.Lfunc_end0:
	.size	main, .Lfunc_end0-main
	.cfi_endproc
	.file	62 "<stdin>"
	.file	63 "/usr/include/bits" "pthreadtypes.h"
	.file	64 "/usr/bin/../lib64/gcc/x86_64-pc-linux-gnu/8.0.0/../../../../include/c++/8.0.0/x86_64-pc-linux-gnu/bits" "gthr-default.h"
	.file	65 "./../include/./orizzonte/./meta" "enumerate_args.hpp"
	.file	66 "/usr/include/bits/types" "struct_timespec.h"
	.section	.gcc_except_table,"a",@progbits
	.p2align	2
GCC_except_table0:
.Lexception0:
	.byte	255                     # @LPStart Encoding = omit
	.byte	255                     # @TType Encoding = omit
	.byte	1                       # Call site Encoding = uleb128
	.uleb128 .Lcst_end0-.Lcst_begin0
.Lcst_begin0:
	.uleb128 .Lfunc_begin0-.Lfunc_begin0 # >> Call Site 1 <<
	.uleb128 .Ltmp0-.Lfunc_begin0   #   Call between .Lfunc_begin0 and .Ltmp0
	.byte	0                       #     has no landing pad
	.byte	0                       #   On action: cleanup
	.uleb128 .Ltmp0-.Lfunc_begin0   # >> Call Site 2 <<
	.uleb128 .Ltmp1-.Ltmp0          #   Call between .Ltmp0 and .Ltmp1
	.uleb128 .Ltmp2-.Lfunc_begin0   #     jumps to .Ltmp2
	.byte	0                       #   On action: cleanup
	.uleb128 .Ltmp1-.Lfunc_begin0   # >> Call Site 3 <<
	.uleb128 .Ltmp3-.Ltmp1          #   Call between .Ltmp1 and .Ltmp3
	.byte	0                       #     has no landing pad
	.byte	0                       #   On action: cleanup
	.uleb128 .Ltmp3-.Lfunc_begin0   # >> Call Site 4 <<
	.uleb128 .Ltmp4-.Ltmp3          #   Call between .Ltmp3 and .Ltmp4
	.uleb128 .Ltmp5-.Lfunc_begin0   #     jumps to .Ltmp5
	.byte	0                       #   On action: cleanup
	.uleb128 .Ltmp4-.Lfunc_begin0   # >> Call Site 5 <<
	.uleb128 .Ltmp6-.Ltmp4          #   Call between .Ltmp4 and .Ltmp6
	.byte	0                       #     has no landing pad
	.byte	0                       #   On action: cleanup
	.uleb128 .Ltmp6-.Lfunc_begin0   # >> Call Site 6 <<
	.uleb128 .Ltmp7-.Ltmp6          #   Call between .Ltmp6 and .Ltmp7
	.uleb128 .Ltmp8-.Lfunc_begin0   #     jumps to .Ltmp8
	.byte	0                       #   On action: cleanup
	.uleb128 .Ltmp7-.Lfunc_begin0   # >> Call Site 7 <<
	.uleb128 .Ltmp9-.Ltmp7          #   Call between .Ltmp7 and .Ltmp9
	.byte	0                       #     has no landing pad
	.byte	0                       #   On action: cleanup
	.uleb128 .Ltmp9-.Lfunc_begin0   # >> Call Site 8 <<
	.uleb128 .Ltmp10-.Ltmp9         #   Call between .Ltmp9 and .Ltmp10
	.uleb128 .Ltmp11-.Lfunc_begin0  #     jumps to .Ltmp11
	.byte	0                       #   On action: cleanup
	.uleb128 .Ltmp10-.Lfunc_begin0  # >> Call Site 9 <<
	.uleb128 .Lfunc_end0-.Ltmp10    #   Call between .Ltmp10 and .Lfunc_end0
	.byte	0                       #     has no landing pad
	.byte	0                       #   On action: cleanup
.Lcst_end0:
	.p2align	2
                                        # -- End function
	.text
	.p2align	4, 0x90         # -- Begin function _ZNSt6thread11_State_implINS_8_InvokerISt5tupleIJZZN8node_andIJ8node_seqIS3_IJS4_I4leafIiZ4mainE3$_0ES5_IiZ4mainE3$_1EES4_IS5_IiZ4mainE3$_2ES5_IiZ4mainE3$_3EES4_IS5_IiZ4mainE3$_4ES5_IiZ4mainE3$_5EEEES5_IS2_IJiiiEEZ4mainE4$_10EES4_IS3_IJS4_IS5_IiZ4mainE3$_6ES5_IiZ4mainE3$_7EES4_IS5_IiZ4mainE3$_8ES5_IiZ4mainE3$_9EEEES5_IS2_IJiiEEZ4mainE4$_11EEEE7executeI1SiZ4mainE4$_12EEvRT_OT0_OT1_ENKUlS19_RS1B_E_clISt17integral_constantImLm0EESP_EEDaS19_S1F_EUlvE_EEEEED0Ev
	.type	_ZNSt6thread11_State_implINS_8_InvokerISt5tupleIJZZN8node_andIJ8node_seqIS3_IJS4_I4leafIiZ4mainE3$_0ES5_IiZ4mainE3$_1EES4_IS5_IiZ4mainE3$_2ES5_IiZ4mainE3$_3EES4_IS5_IiZ4mainE3$_4ES5_IiZ4mainE3$_5EEEES5_IS2_IJiiiEEZ4mainE4$_10EES4_IS3_IJS4_IS5_IiZ4mainE3$_6ES5_IiZ4mainE3$_7EES4_IS5_IiZ4mainE3$_8ES5_IiZ4mainE3$_9EEEES5_IS2_IJiiEEZ4mainE4$_11EEEE7executeI1SiZ4mainE4$_12EEvRT_OT0_OT1_ENKUlS19_RS1B_E_clISt17integral_constantImLm0EESP_EEDaS19_S1F_EUlvE_EEEEED0Ev,@function
_ZNSt6thread11_State_implINS_8_InvokerISt5tupleIJZZN8node_andIJ8node_seqIS3_IJS4_I4leafIiZ4mainE3$_0ES5_IiZ4mainE3$_1EES4_IS5_IiZ4mainE3$_2ES5_IiZ4mainE3$_3EES4_IS5_IiZ4mainE3$_4ES5_IiZ4mainE3$_5EEEES5_IS2_IJiiiEEZ4mainE4$_10EES4_IS3_IJS4_IS5_IiZ4mainE3$_6ES5_IiZ4mainE3$_7EES4_IS5_IiZ4mainE3$_8ES5_IiZ4mainE3$_9EEEES5_IS2_IJiiEEZ4mainE4$_11EEEE7executeI1SiZ4mainE4$_12EEvRT_OT0_OT1_ENKUlS19_RS1B_E_clISt17integral_constantImLm0EESP_EEDaS19_S1F_EUlvE_EEEEED0Ev: # @"_ZNSt6thread11_State_implINS_8_InvokerISt5tupleIJZZN8node_andIJ8node_seqIS3_IJS4_I4leafIiZ4mainE3$_0ES5_IiZ4mainE3$_1EES4_IS5_IiZ4mainE3$_2ES5_IiZ4mainE3$_3EES4_IS5_IiZ4mainE3$_4ES5_IiZ4mainE3$_5EEEES5_IS2_IJiiiEEZ4mainE4$_10EES4_IS3_IJS4_IS5_IiZ4mainE3$_6ES5_IiZ4mainE3$_7EES4_IS5_IiZ4mainE3$_8ES5_IiZ4mainE3$_9EEEES5_IS2_IJiiEEZ4mainE4$_11EEEE7executeI1SiZ4mainE4$_12EEvRT_OT0_OT1_ENKUlS19_RS1B_E_clISt17integral_constantImLm0EESP_EEDaS19_S1F_EUlvE_EEEEED0Ev"
.Lfunc_begin1:
	.loc	60 178 0 is_stmt 1      # /usr/bin/../lib64/gcc/x86_64-pc-linux-gnu/8.0.0/../../../../include/c++/8.0.0/thread:178:0
	.cfi_startproc
# %bb.0:
	pushq	%rbx
	.cfi_def_cfa_offset 16
	.cfi_offset %rbx, -16
	#DEBUG_VALUE: ~_State_impl:this <- $rdi
	movq	%rdi, %rbx
.Ltmp70:
	#DEBUG_VALUE: ~_State_impl:this <- $rbx
	.loc	60 178 14 prologue_end  # /usr/bin/../lib64/gcc/x86_64-pc-linux-gnu/8.0.0/../../../../include/c++/8.0.0/thread:178:14
	callq	_ZNSt6thread6_StateD2Ev
	movq	%rbx, %rdi
	popq	%rbx
.Ltmp71:
	jmp	_ZdlPv                  # TAILCALL
.Ltmp72:
.Lfunc_end1:
	.size	_ZNSt6thread11_State_implINS_8_InvokerISt5tupleIJZZN8node_andIJ8node_seqIS3_IJS4_I4leafIiZ4mainE3$_0ES5_IiZ4mainE3$_1EES4_IS5_IiZ4mainE3$_2ES5_IiZ4mainE3$_3EES4_IS5_IiZ4mainE3$_4ES5_IiZ4mainE3$_5EEEES5_IS2_IJiiiEEZ4mainE4$_10EES4_IS3_IJS4_IS5_IiZ4mainE3$_6ES5_IiZ4mainE3$_7EES4_IS5_IiZ4mainE3$_8ES5_IiZ4mainE3$_9EEEES5_IS2_IJiiEEZ4mainE4$_11EEEE7executeI1SiZ4mainE4$_12EEvRT_OT0_OT1_ENKUlS19_RS1B_E_clISt17integral_constantImLm0EESP_EEDaS19_S1F_EUlvE_EEEEED0Ev, .Lfunc_end1-_ZNSt6thread11_State_implINS_8_InvokerISt5tupleIJZZN8node_andIJ8node_seqIS3_IJS4_I4leafIiZ4mainE3$_0ES5_IiZ4mainE3$_1EES4_IS5_IiZ4mainE3$_2ES5_IiZ4mainE3$_3EES4_IS5_IiZ4mainE3$_4ES5_IiZ4mainE3$_5EEEES5_IS2_IJiiiEEZ4mainE4$_10EES4_IS3_IJS4_IS5_IiZ4mainE3$_6ES5_IiZ4mainE3$_7EES4_IS5_IiZ4mainE3$_8ES5_IiZ4mainE3$_9EEEES5_IS2_IJiiEEZ4mainE4$_11EEEE7executeI1SiZ4mainE4$_12EEvRT_OT0_OT1_ENKUlS19_RS1B_E_clISt17integral_constantImLm0EESP_EEDaS19_S1F_EUlvE_EEEEED0Ev
	.cfi_endproc
                                        # -- End function
	.p2align	4, 0x90         # -- Begin function _ZNSt6thread11_State_implINS_8_InvokerISt5tupleIJZZN8node_andIJ8node_seqIS3_IJS4_I4leafIiZ4mainE3$_0ES5_IiZ4mainE3$_1EES4_IS5_IiZ4mainE3$_2ES5_IiZ4mainE3$_3EES4_IS5_IiZ4mainE3$_4ES5_IiZ4mainE3$_5EEEES5_IS2_IJiiiEEZ4mainE4$_10EES4_IS3_IJS4_IS5_IiZ4mainE3$_6ES5_IiZ4mainE3$_7EES4_IS5_IiZ4mainE3$_8ES5_IiZ4mainE3$_9EEEES5_IS2_IJiiEEZ4mainE4$_11EEEE7executeI1SiZ4mainE4$_12EEvRT_OT0_OT1_ENKUlS19_RS1B_E_clISt17integral_constantImLm0EESP_EEDaS19_S1F_EUlvE_EEEEE6_M_runEv
	.type	_ZNSt6thread11_State_implINS_8_InvokerISt5tupleIJZZN8node_andIJ8node_seqIS3_IJS4_I4leafIiZ4mainE3$_0ES5_IiZ4mainE3$_1EES4_IS5_IiZ4mainE3$_2ES5_IiZ4mainE3$_3EES4_IS5_IiZ4mainE3$_4ES5_IiZ4mainE3$_5EEEES5_IS2_IJiiiEEZ4mainE4$_10EES4_IS3_IJS4_IS5_IiZ4mainE3$_6ES5_IiZ4mainE3$_7EES4_IS5_IiZ4mainE3$_8ES5_IiZ4mainE3$_9EEEES5_IS2_IJiiEEZ4mainE4$_11EEEE7executeI1SiZ4mainE4$_12EEvRT_OT0_OT1_ENKUlS19_RS1B_E_clISt17integral_constantImLm0EESP_EEDaS19_S1F_EUlvE_EEEEE6_M_runEv,@function
_ZNSt6thread11_State_implINS_8_InvokerISt5tupleIJZZN8node_andIJ8node_seqIS3_IJS4_I4leafIiZ4mainE3$_0ES5_IiZ4mainE3$_1EES4_IS5_IiZ4mainE3$_2ES5_IiZ4mainE3$_3EES4_IS5_IiZ4mainE3$_4ES5_IiZ4mainE3$_5EEEES5_IS2_IJiiiEEZ4mainE4$_10EES4_IS3_IJS4_IS5_IiZ4mainE3$_6ES5_IiZ4mainE3$_7EES4_IS5_IiZ4mainE3$_8ES5_IiZ4mainE3$_9EEEES5_IS2_IJiiEEZ4mainE4$_11EEEE7executeI1SiZ4mainE4$_12EEvRT_OT0_OT1_ENKUlS19_RS1B_E_clISt17integral_constantImLm0EESP_EEDaS19_S1F_EUlvE_EEEEE6_M_runEv: # @"_ZNSt6thread11_State_implINS_8_InvokerISt5tupleIJZZN8node_andIJ8node_seqIS3_IJS4_I4leafIiZ4mainE3$_0ES5_IiZ4mainE3$_1EES4_IS5_IiZ4mainE3$_2ES5_IiZ4mainE3$_3EES4_IS5_IiZ4mainE3$_4ES5_IiZ4mainE3$_5EEEES5_IS2_IJiiiEEZ4mainE4$_10EES4_IS3_IJS4_IS5_IiZ4mainE3$_6ES5_IiZ4mainE3$_7EES4_IS5_IiZ4mainE3$_8ES5_IiZ4mainE3$_9EEEES5_IS2_IJiiEEZ4mainE4$_11EEEE7executeI1SiZ4mainE4$_12EEvRT_OT0_OT1_ENKUlS19_RS1B_E_clISt17integral_constantImLm0EESP_EEDaS19_S1F_EUlvE_EEEEE6_M_runEv"
.Lfunc_begin2:
	.loc	60 186 0                # /usr/bin/../lib64/gcc/x86_64-pc-linux-gnu/8.0.0/../../../../include/c++/8.0.0/thread:186:0
	.cfi_startproc
	.cfi_personality 3, __gxx_personality_v0
	.cfi_lsda 3, .Lexception1
# %bb.0:
	pushq	%rbp
	.cfi_def_cfa_offset 16
	pushq	%r15
	.cfi_def_cfa_offset 24
	pushq	%r14
	.cfi_def_cfa_offset 32
	pushq	%r13
	.cfi_def_cfa_offset 40
	pushq	%r12
	.cfi_def_cfa_offset 48
	pushq	%rbx
	.cfi_def_cfa_offset 56
	subq	$24, %rsp
	.cfi_def_cfa_offset 80
	.cfi_offset %rbx, -56
	.cfi_offset %r12, -48
	.cfi_offset %r13, -40
	.cfi_offset %r14, -32
	.cfi_offset %r15, -24
	.cfi_offset %rbp, -16
	#DEBUG_VALUE: _M_run:this <- $rdi
.Ltmp91:
	#DEBUG_VALUE: operator():this <- [DW_OP_plus_uconst 8, DW_OP_stack_value] $rdi
	#DEBUG_VALUE: _M_invoke<0>:this <- [DW_OP_plus_uconst 8, DW_OP_stack_value] $rdi
	#DEBUG_VALUE: __invoke<(lambda at ./new2.cpp:107:23)>:__fn <- [DW_OP_plus_uconst 8, DW_OP_stack_value] $rdi
	#DEBUG_VALUE: __invoke_impl<void, (lambda at ./new2.cpp:107:23)>:__f <- [DW_OP_plus_uconst 8, DW_OP_stack_value] $rdi
	#DEBUG_VALUE: operator():this <- [DW_OP_plus_uconst 8, DW_OP_stack_value] $rdi
	movq	16(%rdi), %r15
	#DEBUG_VALUE: operator():this <- [DW_OP_plus_uconst 8, DW_OP_stack_value] $rdi
	#DEBUG_VALUE: __invoke_impl<void, (lambda at ./new2.cpp:107:23)>:__f <- [DW_OP_plus_uconst 8, DW_OP_stack_value] $rdi
	#DEBUG_VALUE: __invoke<(lambda at ./new2.cpp:107:23)>:__fn <- [DW_OP_plus_uconst 8, DW_OP_stack_value] $rdi
	#DEBUG_VALUE: _M_invoke<0>:this <- [DW_OP_plus_uconst 8, DW_OP_stack_value] $rdi
	#DEBUG_VALUE: operator():this <- [DW_OP_plus_uconst 8, DW_OP_stack_value] $rdi
	#DEBUG_VALUE: _M_run:this <- $rdi
.Ltmp92:
	.loc	4 108 17 prologue_end   # ./new2.cpp:108:17
	movq	24(%rdi), %rbx
	.loc	4 108 27 is_stmt 0      # ./new2.cpp:108:27
	movq	32(%rdi), %r14
.Ltmp93:
	#DEBUG_VALUE: access:this <- [DW_OP_plus_uconst 40, DW_OP_stack_value] $r15
	.loc	4 109 30 is_stmt 1      # ./new2.cpp:109:30
	movq	40(%rdi), %r12
	leaq	8(%rdi), %r13
	movl	40(%r15), %eax
.Ltmp94:
	#DEBUG_VALUE: construct<int &>:this <- [DW_OP_plus_uconst 4, DW_OP_stack_value] $rbx
	#DEBUG_VALUE: execute<S, int &, (lambda at ./new2.cpp:108:59)>:scheduler <- $r14
	#DEBUG_VALUE: execute<S, int &, (lambda at ./new2.cpp:66:36)>:scheduler <- $r14
	#DEBUG_VALUE: execute<S, int &, (lambda at ./new2.cpp:108:59)>:this <- $rbx
	#DEBUG_VALUE: execute<S, int &, (lambda at ./new2.cpp:66:36)>:this <- [DW_OP_stack_value] $rbx
	.loc	16 48 13                # ./../include/./orizzonte/./utility/aligned_storage.hpp:48:13
	movl	%eax, 4(%rbx)
.Ltmp95:
	.loc	60 82 23                # /usr/bin/../lib64/gcc/x86_64-pc-linux-gnu/8.0.0/../../../../include/c++/8.0.0/thread:82:23
	movq	$0, (%rsp)
.Ltmp96:
	.loc	60 197 20               # /usr/bin/../lib64/gcc/x86_64-pc-linux-gnu/8.0.0/../../../../include/c++/8.0.0/thread:197:20
	movl	$80, %edi
.Ltmp97:
	callq	_Znwm
.Ltmp98:
	#DEBUG_VALUE: _State_impl:this <- $rax
	.loc	60 183 2                # /usr/bin/../lib64/gcc/x86_64-pc-linux-gnu/8.0.0/../../../../include/c++/8.0.0/thread:183:2
	movq	$_ZTVNSt6thread11_State_implINS_8_InvokerISt5tupleIJZZN8node_andIJ8node_seqI4leafIiZ4mainE3$_0ES5_IiZ4mainE3$_1EES4_IS5_IiZ4mainE3$_2ES5_IiZ4mainE3$_3EES4_IS5_IiZ4mainE3$_4ES5_IiZ4mainE3$_5EEEE7executeI1SRiZNS4_ISL_S5_IS2_IJiiiEEZ4mainE4$_10EE7executeISN_SO_ZZZNS3_IJSS_S4_IS3_IJS4_IS5_IiZ4mainE3$_6ES5_IiZ4mainE3$_7EES4_IS5_IiZ4mainE3$_8ES5_IiZ4mainE3$_9EEEES5_IS2_IJiiEEZ4mainE4$_11EEEE7executeISN_iZ4mainE4$_12EEvRT_OT0_OT1_ENKUlS1C_RS1E_E_clISt17integral_constantImLm0EESS_EEDaS1C_S1I_ENKUlvE_clEvEUlOS1C_E_EEvS1D_S1F_S1H_EUlS1P_E_EEvS1D_S1F_S1H_ENKUlS1C_S1I_E_clIS1M_SA_EES1N_S1C_S1I_EUlvE_EEEEEE+16, (%rax)
.Ltmp99:
	.loc	5 133 4                 # /usr/bin/../lib64/gcc/x86_64-pc-linux-gnu/8.0.0/../../../../include/c++/8.0.0/tuple:133:4
	movq	%rbx, 8(%rax)
	movq	%r14, 16(%rax)
	movq	%r15, 24(%rax)
	movq	%r12, 32(%rax)
	movq	%r13, 40(%rax)
	movq	%rbx, 48(%rax)
	movq	%rbx, 56(%rax)
	movq	%r14, 64(%rax)
	leaq	16(%rsp), %rbp
	movq	%rbp, 72(%rax)
.Ltmp100:
	#DEBUG_VALUE: unique_ptr<std::default_delete<std::thread::_State>, void>:__p <- $rax
	#DEBUG_VALUE: __uniq_ptr_impl:__p <- $rax
	.loc	61 143 56               # /usr/bin/../lib64/gcc/x86_64-pc-linux-gnu/8.0.0/../../../../include/c++/8.0.0/bits/unique_ptr.h:143:56
	movq	%rax, 8(%rsp)
.Ltmp73:
	movq	%rsp, %rdi
.Ltmp101:
	#DEBUG_VALUE: id:this <- [DW_OP_stack_value] [$rsp+0]
	#DEBUG_VALUE: thread<(lambda at ./new2.cpp:107:23)>:this <- [$rsp+0]
	.loc	61 0 56 is_stmt 0       # /usr/bin/../lib64/gcc/x86_64-pc-linux-gnu/8.0.0/../../../../include/c++/8.0.0/bits/unique_ptr.h:0:56
	leaq	8(%rsp), %rsi
.Ltmp102:
	#DEBUG_VALUE: __uniq_ptr_impl:this <- [DW_OP_plus_uconst 8, DW_OP_stack_value] [$rsp+0]
	#DEBUG_VALUE: unique_ptr<std::default_delete<std::thread::_State>, void>:this <- [DW_OP_plus_uconst 8] [$rsp+0]
	.loc	60 126 9 is_stmt 1      # /usr/bin/../lib64/gcc/x86_64-pc-linux-gnu/8.0.0/../../../../include/c++/8.0.0/thread:126:9
	movl	$pthread_create, %edx
.Ltmp103:
	#DEBUG_VALUE: __depend <- $rdx
	callq	_ZNSt6thread15_M_start_threadESt10unique_ptrINS_6_StateESt14default_deleteIS1_EEPFvvE
.Ltmp104:
.Ltmp74:
# %bb.1:
	#DEBUG_VALUE: thread<(lambda at ./new2.cpp:107:23)>:this <- [$rsp+0]
	#DEBUG_VALUE: execute<S, int &, (lambda at ./new2.cpp:66:36)>:this <- [DW_OP_stack_value] $rbx
	#DEBUG_VALUE: execute<S, int &, (lambda at ./new2.cpp:108:59)>:this <- $rbx
	#DEBUG_VALUE: execute<S, int &, (lambda at ./new2.cpp:66:36)>:scheduler <- $r14
	#DEBUG_VALUE: execute<S, int &, (lambda at ./new2.cpp:108:59)>:scheduler <- $r14
	.loc	61 273 6                # /usr/bin/../lib64/gcc/x86_64-pc-linux-gnu/8.0.0/../../../../include/c++/8.0.0/bits/unique_ptr.h:273:6
	movq	8(%rsp), %rdi
.Ltmp105:
	#DEBUG_VALUE: operator():__ptr <- $rdi
	.loc	61 273 12 is_stmt 0     # /usr/bin/../lib64/gcc/x86_64-pc-linux-gnu/8.0.0/../../../../include/c++/8.0.0/bits/unique_ptr.h:273:12
	testq	%rdi, %rdi
.Ltmp106:
	.loc	61 273 6                # /usr/bin/../lib64/gcc/x86_64-pc-linux-gnu/8.0.0/../../../../include/c++/8.0.0/bits/unique_ptr.h:273:6
	je	.LBB2_3
.Ltmp107:
# %bb.2:
	#DEBUG_VALUE: operator():__ptr <- $rdi
	#DEBUG_VALUE: thread<(lambda at ./new2.cpp:107:23)>:this <- [$rsp+0]
	#DEBUG_VALUE: execute<S, int &, (lambda at ./new2.cpp:66:36)>:this <- [DW_OP_stack_value] $rbx
	#DEBUG_VALUE: execute<S, int &, (lambda at ./new2.cpp:108:59)>:this <- $rbx
	#DEBUG_VALUE: execute<S, int &, (lambda at ./new2.cpp:66:36)>:scheduler <- $r14
	#DEBUG_VALUE: execute<S, int &, (lambda at ./new2.cpp:108:59)>:scheduler <- $r14
	.loc	61 81 2 is_stmt 1       # /usr/bin/../lib64/gcc/x86_64-pc-linux-gnu/8.0.0/../../../../include/c++/8.0.0/bits/unique_ptr.h:81:2
	movq	(%rdi), %rax
	callq	*8(%rax)
.Ltmp108:
.LBB2_3:
	#DEBUG_VALUE: execute<S, int &, (lambda at ./new2.cpp:66:36)>:this <- [DW_OP_stack_value] $rbx
	#DEBUG_VALUE: execute<S, int &, (lambda at ./new2.cpp:108:59)>:this <- $rbx
	#DEBUG_VALUE: execute<S, int &, (lambda at ./new2.cpp:66:36)>:scheduler <- $r14
	#DEBUG_VALUE: execute<S, int &, (lambda at ./new2.cpp:108:59)>:scheduler <- $r14
.Ltmp76:
	.loc	61 0 2 is_stmt 0        # /usr/bin/../lib64/gcc/x86_64-pc-linux-gnu/8.0.0/../../../../include/c++/8.0.0/bits/unique_ptr.h:0:2
	movq	%rsp, %rdi
	.loc	4 15 35 is_stmt 1       # ./new2.cpp:15:35
	callq	_ZNSt6thread6detachEv
.Ltmp77:
.Ltmp109:
# %bb.4:
	#DEBUG_VALUE: execute<S, int &, (lambda at ./new2.cpp:66:36)>:this <- [DW_OP_stack_value] $rbx
	#DEBUG_VALUE: execute<S, int &, (lambda at ./new2.cpp:108:59)>:this <- $rbx
	#DEBUG_VALUE: execute<S, int &, (lambda at ./new2.cpp:66:36)>:scheduler <- $r14
	#DEBUG_VALUE: execute<S, int &, (lambda at ./new2.cpp:108:59)>:scheduler <- $r14
	#DEBUG_VALUE: operator==:__y <- 0
	.loc	60 276 26               # /usr/bin/../lib64/gcc/x86_64-pc-linux-gnu/8.0.0/../../../../include/c++/8.0.0/thread:276:26
	cmpq	$0, (%rsp)
.Ltmp110:
	.loc	60 134 11               # /usr/bin/../lib64/gcc/x86_64-pc-linux-gnu/8.0.0/../../../../include/c++/8.0.0/thread:134:11
	jne	.LBB2_5
.Ltmp111:
# %bb.12:
	#DEBUG_VALUE: execute<S, int &, (lambda at ./new2.cpp:66:36)>:this <- [DW_OP_stack_value] $rbx
	#DEBUG_VALUE: execute<S, int &, (lambda at ./new2.cpp:108:59)>:this <- $rbx
	#DEBUG_VALUE: execute<S, int &, (lambda at ./new2.cpp:66:36)>:scheduler <- $r14
	#DEBUG_VALUE: execute<S, int &, (lambda at ./new2.cpp:108:59)>:scheduler <- $r14
	.loc	60 82 23                # /usr/bin/../lib64/gcc/x86_64-pc-linux-gnu/8.0.0/../../../../include/c++/8.0.0/thread:82:23
	movq	$0, (%rsp)
.Ltmp112:
	.loc	60 197 20               # /usr/bin/../lib64/gcc/x86_64-pc-linux-gnu/8.0.0/../../../../include/c++/8.0.0/thread:197:20
	movl	$80, %edi
	callq	_Znwm
.Ltmp113:
	#DEBUG_VALUE: _State_impl:this <- $rax
	.loc	60 183 2                # /usr/bin/../lib64/gcc/x86_64-pc-linux-gnu/8.0.0/../../../../include/c++/8.0.0/thread:183:2
	movq	$_ZTVNSt6thread11_State_implINS_8_InvokerISt5tupleIJZZN8node_andIJ8node_seqI4leafIiZ4mainE3$_0ES5_IiZ4mainE3$_1EES4_IS5_IiZ4mainE3$_2ES5_IiZ4mainE3$_3EES4_IS5_IiZ4mainE3$_4ES5_IiZ4mainE3$_5EEEE7executeI1SRiZNS4_ISL_S5_IS2_IJiiiEEZ4mainE4$_10EE7executeISN_SO_ZZZNS3_IJSS_S4_IS3_IJS4_IS5_IiZ4mainE3$_6ES5_IiZ4mainE3$_7EES4_IS5_IiZ4mainE3$_8ES5_IiZ4mainE3$_9EEEES5_IS2_IJiiEEZ4mainE4$_11EEEE7executeISN_iZ4mainE4$_12EEvRT_OT0_OT1_ENKUlS1C_RS1E_E_clISt17integral_constantImLm0EESS_EEDaS1C_S1I_ENKUlvE_clEvEUlOS1C_E_EEvS1D_S1F_S1H_EUlS1P_E_EEvS1D_S1F_S1H_ENKUlS1C_S1I_E_clIS1L_ImLm1EESF_EES1N_S1C_S1I_EUlvE_EEEEEE+16, (%rax)
.Ltmp114:
	.loc	5 133 4                 # /usr/bin/../lib64/gcc/x86_64-pc-linux-gnu/8.0.0/../../../../include/c++/8.0.0/tuple:133:4
	movq	%rbx, 8(%rax)
	movq	%r14, 16(%rax)
	movq	%r15, 24(%rax)
	movq	%r12, 32(%rax)
	movq	%r13, 40(%rax)
	movq	%rbx, 48(%rax)
	movq	%rbx, 56(%rax)
	movq	%r14, 64(%rax)
	movq	%rbp, 72(%rax)
.Ltmp115:
	#DEBUG_VALUE: unique_ptr<std::default_delete<std::thread::_State>, void>:__p <- $rax
	#DEBUG_VALUE: __uniq_ptr_impl:__p <- $rax
	.loc	61 143 56               # /usr/bin/../lib64/gcc/x86_64-pc-linux-gnu/8.0.0/../../../../include/c++/8.0.0/bits/unique_ptr.h:143:56
	movq	%rax, 8(%rsp)
.Ltmp79:
	movq	%rsp, %rdi
.Ltmp116:
	#DEBUG_VALUE: id:this <- [DW_OP_stack_value] [$rsp+0]
	#DEBUG_VALUE: thread<(lambda at ./new2.cpp:107:23)>:this <- [$rsp+0]
	.loc	61 0 56 is_stmt 0       # /usr/bin/../lib64/gcc/x86_64-pc-linux-gnu/8.0.0/../../../../include/c++/8.0.0/bits/unique_ptr.h:0:56
	leaq	8(%rsp), %rsi
.Ltmp117:
	#DEBUG_VALUE: __uniq_ptr_impl:this <- [DW_OP_plus_uconst 8, DW_OP_stack_value] [$rsp+0]
	#DEBUG_VALUE: unique_ptr<std::default_delete<std::thread::_State>, void>:this <- [DW_OP_plus_uconst 8] [$rsp+0]
	.loc	60 126 9 is_stmt 1      # /usr/bin/../lib64/gcc/x86_64-pc-linux-gnu/8.0.0/../../../../include/c++/8.0.0/thread:126:9
	movl	$pthread_create, %edx
.Ltmp118:
	#DEBUG_VALUE: __depend <- $rdx
	callq	_ZNSt6thread15_M_start_threadESt10unique_ptrINS_6_StateESt14default_deleteIS1_EEPFvvE
.Ltmp119:
.Ltmp80:
# %bb.13:
	#DEBUG_VALUE: thread<(lambda at ./new2.cpp:107:23)>:this <- [$rsp+0]
	#DEBUG_VALUE: execute<S, int &, (lambda at ./new2.cpp:66:36)>:this <- [DW_OP_stack_value] $rbx
	#DEBUG_VALUE: execute<S, int &, (lambda at ./new2.cpp:108:59)>:this <- $rbx
	#DEBUG_VALUE: execute<S, int &, (lambda at ./new2.cpp:66:36)>:scheduler <- $r14
	#DEBUG_VALUE: execute<S, int &, (lambda at ./new2.cpp:108:59)>:scheduler <- $r14
	.loc	61 273 6                # /usr/bin/../lib64/gcc/x86_64-pc-linux-gnu/8.0.0/../../../../include/c++/8.0.0/bits/unique_ptr.h:273:6
	movq	8(%rsp), %rdi
.Ltmp120:
	#DEBUG_VALUE: operator():__ptr <- $rdi
	.loc	61 273 12 is_stmt 0     # /usr/bin/../lib64/gcc/x86_64-pc-linux-gnu/8.0.0/../../../../include/c++/8.0.0/bits/unique_ptr.h:273:12
	testq	%rdi, %rdi
.Ltmp121:
	.loc	61 273 6                # /usr/bin/../lib64/gcc/x86_64-pc-linux-gnu/8.0.0/../../../../include/c++/8.0.0/bits/unique_ptr.h:273:6
	je	.LBB2_15
.Ltmp122:
# %bb.14:
	#DEBUG_VALUE: operator():__ptr <- $rdi
	#DEBUG_VALUE: thread<(lambda at ./new2.cpp:107:23)>:this <- [$rsp+0]
	#DEBUG_VALUE: execute<S, int &, (lambda at ./new2.cpp:66:36)>:this <- [DW_OP_stack_value] $rbx
	#DEBUG_VALUE: execute<S, int &, (lambda at ./new2.cpp:108:59)>:this <- $rbx
	#DEBUG_VALUE: execute<S, int &, (lambda at ./new2.cpp:66:36)>:scheduler <- $r14
	#DEBUG_VALUE: execute<S, int &, (lambda at ./new2.cpp:108:59)>:scheduler <- $r14
	.loc	61 81 2 is_stmt 1       # /usr/bin/../lib64/gcc/x86_64-pc-linux-gnu/8.0.0/../../../../include/c++/8.0.0/bits/unique_ptr.h:81:2
	movq	(%rdi), %rax
	callq	*8(%rax)
.Ltmp123:
.LBB2_15:
	#DEBUG_VALUE: execute<S, int &, (lambda at ./new2.cpp:66:36)>:this <- [DW_OP_stack_value] $rbx
	#DEBUG_VALUE: execute<S, int &, (lambda at ./new2.cpp:108:59)>:this <- $rbx
	#DEBUG_VALUE: execute<S, int &, (lambda at ./new2.cpp:66:36)>:scheduler <- $r14
	#DEBUG_VALUE: execute<S, int &, (lambda at ./new2.cpp:108:59)>:scheduler <- $r14
.Ltmp82:
	.loc	61 0 2 is_stmt 0        # /usr/bin/../lib64/gcc/x86_64-pc-linux-gnu/8.0.0/../../../../include/c++/8.0.0/bits/unique_ptr.h:0:2
	movq	%rsp, %rdi
	.loc	4 15 35 is_stmt 1       # ./new2.cpp:15:35
	callq	_ZNSt6thread6detachEv
.Ltmp83:
.Ltmp124:
# %bb.16:
	#DEBUG_VALUE: execute<S, int &, (lambda at ./new2.cpp:66:36)>:this <- [DW_OP_stack_value] $rbx
	#DEBUG_VALUE: execute<S, int &, (lambda at ./new2.cpp:108:59)>:this <- $rbx
	#DEBUG_VALUE: execute<S, int &, (lambda at ./new2.cpp:66:36)>:scheduler <- $r14
	#DEBUG_VALUE: execute<S, int &, (lambda at ./new2.cpp:108:59)>:scheduler <- $r14
	#DEBUG_VALUE: operator==:__y <- 0
	.loc	60 276 26               # /usr/bin/../lib64/gcc/x86_64-pc-linux-gnu/8.0.0/../../../../include/c++/8.0.0/thread:276:26
	cmpq	$0, (%rsp)
.Ltmp125:
	.loc	60 134 11               # /usr/bin/../lib64/gcc/x86_64-pc-linux-gnu/8.0.0/../../../../include/c++/8.0.0/thread:134:11
	jne	.LBB2_5
.Ltmp126:
# %bb.17:
	#DEBUG_VALUE: execute<S, int &, (lambda at ./new2.cpp:66:36)>:this <- [DW_OP_stack_value] $rbx
	#DEBUG_VALUE: execute<S, int &, (lambda at ./new2.cpp:108:59)>:this <- $rbx
	#DEBUG_VALUE: execute<S, int &, (lambda at ./new2.cpp:66:36)>:scheduler <- $r14
	#DEBUG_VALUE: execute<S, int &, (lambda at ./new2.cpp:108:59)>:scheduler <- $r14
	.loc	60 82 23                # /usr/bin/../lib64/gcc/x86_64-pc-linux-gnu/8.0.0/../../../../include/c++/8.0.0/thread:82:23
	movq	$0, (%rsp)
.Ltmp127:
	.loc	60 197 20               # /usr/bin/../lib64/gcc/x86_64-pc-linux-gnu/8.0.0/../../../../include/c++/8.0.0/thread:197:20
	movl	$80, %edi
	callq	_Znwm
.Ltmp128:
	#DEBUG_VALUE: _State_impl:this <- $rax
	.loc	60 183 2                # /usr/bin/../lib64/gcc/x86_64-pc-linux-gnu/8.0.0/../../../../include/c++/8.0.0/thread:183:2
	movq	$_ZTVNSt6thread11_State_implINS_8_InvokerISt5tupleIJZZN8node_andIJ8node_seqI4leafIiZ4mainE3$_0ES5_IiZ4mainE3$_1EES4_IS5_IiZ4mainE3$_2ES5_IiZ4mainE3$_3EES4_IS5_IiZ4mainE3$_4ES5_IiZ4mainE3$_5EEEE7executeI1SRiZNS4_ISL_S5_IS2_IJiiiEEZ4mainE4$_10EE7executeISN_SO_ZZZNS3_IJSS_S4_IS3_IJS4_IS5_IiZ4mainE3$_6ES5_IiZ4mainE3$_7EES4_IS5_IiZ4mainE3$_8ES5_IiZ4mainE3$_9EEEES5_IS2_IJiiEEZ4mainE4$_11EEEE7executeISN_iZ4mainE4$_12EEvRT_OT0_OT1_ENKUlS1C_RS1E_E_clISt17integral_constantImLm0EESS_EEDaS1C_S1I_ENKUlvE_clEvEUlOS1C_E_EEvS1D_S1F_S1H_EUlS1P_E_EEvS1D_S1F_S1H_ENKUlS1C_S1I_E_clIS1L_ImLm2EESK_EES1N_S1C_S1I_EUlvE_EEEEEE+16, (%rax)
.Ltmp129:
	.loc	5 133 4                 # /usr/bin/../lib64/gcc/x86_64-pc-linux-gnu/8.0.0/../../../../include/c++/8.0.0/tuple:133:4
	movq	%rbx, 8(%rax)
	movq	%r14, 16(%rax)
	movq	%r15, 24(%rax)
	movq	%r12, 32(%rax)
	movq	%r13, 40(%rax)
	movq	%rbx, 48(%rax)
	movq	%rbx, 56(%rax)
	movq	%r14, 64(%rax)
	movq	%rbp, 72(%rax)
.Ltmp130:
	#DEBUG_VALUE: unique_ptr<std::default_delete<std::thread::_State>, void>:__p <- $rax
	#DEBUG_VALUE: __uniq_ptr_impl:__p <- $rax
	.loc	61 143 56               # /usr/bin/../lib64/gcc/x86_64-pc-linux-gnu/8.0.0/../../../../include/c++/8.0.0/bits/unique_ptr.h:143:56
	movq	%rax, 8(%rsp)
.Ltmp85:
	movq	%rsp, %rdi
.Ltmp131:
	#DEBUG_VALUE: id:this <- [DW_OP_stack_value] [$rsp+0]
	#DEBUG_VALUE: thread<(lambda at ./new2.cpp:107:23)>:this <- [$rsp+0]
	.loc	61 0 56 is_stmt 0       # /usr/bin/../lib64/gcc/x86_64-pc-linux-gnu/8.0.0/../../../../include/c++/8.0.0/bits/unique_ptr.h:0:56
	leaq	8(%rsp), %rsi
.Ltmp132:
	#DEBUG_VALUE: __uniq_ptr_impl:this <- [DW_OP_plus_uconst 8, DW_OP_stack_value] [$rsp+0]
	#DEBUG_VALUE: unique_ptr<std::default_delete<std::thread::_State>, void>:this <- [DW_OP_plus_uconst 8] [$rsp+0]
	.loc	60 126 9 is_stmt 1      # /usr/bin/../lib64/gcc/x86_64-pc-linux-gnu/8.0.0/../../../../include/c++/8.0.0/thread:126:9
	movl	$pthread_create, %edx
.Ltmp133:
	#DEBUG_VALUE: __depend <- $rdx
	callq	_ZNSt6thread15_M_start_threadESt10unique_ptrINS_6_StateESt14default_deleteIS1_EEPFvvE
.Ltmp134:
.Ltmp86:
# %bb.18:
	#DEBUG_VALUE: thread<(lambda at ./new2.cpp:107:23)>:this <- [$rsp+0]
	#DEBUG_VALUE: execute<S, int &, (lambda at ./new2.cpp:66:36)>:this <- [DW_OP_stack_value] $rbx
	#DEBUG_VALUE: execute<S, int &, (lambda at ./new2.cpp:108:59)>:this <- $rbx
	#DEBUG_VALUE: execute<S, int &, (lambda at ./new2.cpp:66:36)>:scheduler <- $r14
	#DEBUG_VALUE: execute<S, int &, (lambda at ./new2.cpp:108:59)>:scheduler <- $r14
	.loc	61 273 6                # /usr/bin/../lib64/gcc/x86_64-pc-linux-gnu/8.0.0/../../../../include/c++/8.0.0/bits/unique_ptr.h:273:6
	movq	8(%rsp), %rdi
.Ltmp135:
	#DEBUG_VALUE: operator():__ptr <- $rdi
	.loc	61 273 12 is_stmt 0     # /usr/bin/../lib64/gcc/x86_64-pc-linux-gnu/8.0.0/../../../../include/c++/8.0.0/bits/unique_ptr.h:273:12
	testq	%rdi, %rdi
.Ltmp136:
	.loc	61 273 6                # /usr/bin/../lib64/gcc/x86_64-pc-linux-gnu/8.0.0/../../../../include/c++/8.0.0/bits/unique_ptr.h:273:6
	je	.LBB2_20
.Ltmp137:
# %bb.19:
	#DEBUG_VALUE: operator():__ptr <- $rdi
	#DEBUG_VALUE: thread<(lambda at ./new2.cpp:107:23)>:this <- [$rsp+0]
	#DEBUG_VALUE: execute<S, int &, (lambda at ./new2.cpp:66:36)>:this <- [DW_OP_stack_value] $rbx
	#DEBUG_VALUE: execute<S, int &, (lambda at ./new2.cpp:108:59)>:this <- $rbx
	#DEBUG_VALUE: execute<S, int &, (lambda at ./new2.cpp:66:36)>:scheduler <- $r14
	#DEBUG_VALUE: execute<S, int &, (lambda at ./new2.cpp:108:59)>:scheduler <- $r14
	.loc	61 81 2 is_stmt 1       # /usr/bin/../lib64/gcc/x86_64-pc-linux-gnu/8.0.0/../../../../include/c++/8.0.0/bits/unique_ptr.h:81:2
	movq	(%rdi), %rax
	callq	*8(%rax)
.Ltmp138:
.LBB2_20:
	#DEBUG_VALUE: execute<S, int &, (lambda at ./new2.cpp:66:36)>:this <- [DW_OP_stack_value] $rbx
	#DEBUG_VALUE: execute<S, int &, (lambda at ./new2.cpp:108:59)>:this <- $rbx
	#DEBUG_VALUE: execute<S, int &, (lambda at ./new2.cpp:66:36)>:scheduler <- $r14
	#DEBUG_VALUE: execute<S, int &, (lambda at ./new2.cpp:108:59)>:scheduler <- $r14
.Ltmp88:
	.loc	61 0 2 is_stmt 0        # /usr/bin/../lib64/gcc/x86_64-pc-linux-gnu/8.0.0/../../../../include/c++/8.0.0/bits/unique_ptr.h:0:2
	movq	%rsp, %rdi
	.loc	4 15 35 is_stmt 1       # ./new2.cpp:15:35
	callq	_ZNSt6thread6detachEv
.Ltmp89:
.Ltmp139:
# %bb.21:
	#DEBUG_VALUE: execute<S, int &, (lambda at ./new2.cpp:66:36)>:this <- [DW_OP_stack_value] $rbx
	#DEBUG_VALUE: execute<S, int &, (lambda at ./new2.cpp:108:59)>:this <- $rbx
	#DEBUG_VALUE: execute<S, int &, (lambda at ./new2.cpp:66:36)>:scheduler <- $r14
	#DEBUG_VALUE: execute<S, int &, (lambda at ./new2.cpp:108:59)>:scheduler <- $r14
	#DEBUG_VALUE: operator==:__y <- 0
	.loc	60 276 26               # /usr/bin/../lib64/gcc/x86_64-pc-linux-gnu/8.0.0/../../../../include/c++/8.0.0/thread:276:26
	cmpq	$0, (%rsp)
.Ltmp140:
	.loc	60 134 11               # /usr/bin/../lib64/gcc/x86_64-pc-linux-gnu/8.0.0/../../../../include/c++/8.0.0/thread:134:11
	jne	.LBB2_5
.Ltmp141:
# %bb.22:
	.loc	60 186 24               # /usr/bin/../lib64/gcc/x86_64-pc-linux-gnu/8.0.0/../../../../include/c++/8.0.0/thread:186:24
	addq	$24, %rsp
	popq	%rbx
	popq	%r12
	popq	%r13
	popq	%r14
	popq	%r15
	popq	%rbp
	retq
.LBB2_26:
.Ltmp142:
	#DEBUG_VALUE: execute<S, int &, (lambda at ./new2.cpp:66:36)>:this <- [DW_OP_stack_value] $rbx
	#DEBUG_VALUE: execute<S, int &, (lambda at ./new2.cpp:108:59)>:this <- $rbx
	#DEBUG_VALUE: execute<S, int &, (lambda at ./new2.cpp:66:36)>:scheduler <- $r14
	#DEBUG_VALUE: execute<S, int &, (lambda at ./new2.cpp:108:59)>:scheduler <- $r14
.Ltmp90:
	.loc	60 0 24 is_stmt 0       # /usr/bin/../lib64/gcc/x86_64-pc-linux-gnu/8.0.0/../../../../include/c++/8.0.0/thread:0:24
	movq	%rax, %rbx
.Ltmp143:
	#DEBUG_VALUE: operator==:__y <- 0
	.loc	60 276 26 is_stmt 1     # /usr/bin/../lib64/gcc/x86_64-pc-linux-gnu/8.0.0/../../../../include/c++/8.0.0/thread:276:26
	cmpq	$0, (%rsp)
.Ltmp144:
	.loc	60 134 11               # /usr/bin/../lib64/gcc/x86_64-pc-linux-gnu/8.0.0/../../../../include/c++/8.0.0/thread:134:11
	jne	.LBB2_5
	jmp	.LBB2_9
.Ltmp145:
.LBB2_25:
	#DEBUG_VALUE: execute<S, int &, (lambda at ./new2.cpp:66:36)>:this <- [DW_OP_stack_value] $rbx
	#DEBUG_VALUE: execute<S, int &, (lambda at ./new2.cpp:108:59)>:this <- $rbx
	#DEBUG_VALUE: execute<S, int &, (lambda at ./new2.cpp:66:36)>:scheduler <- $r14
	#DEBUG_VALUE: execute<S, int &, (lambda at ./new2.cpp:108:59)>:scheduler <- $r14
.Ltmp87:
	.loc	60 0 11 is_stmt 0       # /usr/bin/../lib64/gcc/x86_64-pc-linux-gnu/8.0.0/../../../../include/c++/8.0.0/thread:0:11
	movq	%rax, %rbx
.Ltmp146:
	.loc	61 273 6 is_stmt 1      # /usr/bin/../lib64/gcc/x86_64-pc-linux-gnu/8.0.0/../../../../include/c++/8.0.0/bits/unique_ptr.h:273:6
	movq	8(%rsp), %rdi
.Ltmp147:
	#DEBUG_VALUE: operator():__ptr <- $rdi
	.loc	61 273 12 is_stmt 0     # /usr/bin/../lib64/gcc/x86_64-pc-linux-gnu/8.0.0/../../../../include/c++/8.0.0/bits/unique_ptr.h:273:12
	testq	%rdi, %rdi
.Ltmp148:
	.loc	61 273 6                # /usr/bin/../lib64/gcc/x86_64-pc-linux-gnu/8.0.0/../../../../include/c++/8.0.0/bits/unique_ptr.h:273:6
	jne	.LBB2_8
	jmp	.LBB2_9
.Ltmp149:
.LBB2_24:
	#DEBUG_VALUE: execute<S, int &, (lambda at ./new2.cpp:66:36)>:this <- [DW_OP_stack_value] $rbx
	#DEBUG_VALUE: execute<S, int &, (lambda at ./new2.cpp:108:59)>:this <- $rbx
	#DEBUG_VALUE: execute<S, int &, (lambda at ./new2.cpp:66:36)>:scheduler <- $r14
	#DEBUG_VALUE: execute<S, int &, (lambda at ./new2.cpp:108:59)>:scheduler <- $r14
.Ltmp84:
	.loc	61 0 6                  # /usr/bin/../lib64/gcc/x86_64-pc-linux-gnu/8.0.0/../../../../include/c++/8.0.0/bits/unique_ptr.h:0:6
	movq	%rax, %rbx
.Ltmp150:
	#DEBUG_VALUE: operator==:__y <- 0
	.loc	60 276 26 is_stmt 1     # /usr/bin/../lib64/gcc/x86_64-pc-linux-gnu/8.0.0/../../../../include/c++/8.0.0/thread:276:26
	cmpq	$0, (%rsp)
.Ltmp151:
	.loc	60 134 11               # /usr/bin/../lib64/gcc/x86_64-pc-linux-gnu/8.0.0/../../../../include/c++/8.0.0/thread:134:11
	jne	.LBB2_5
	jmp	.LBB2_9
.Ltmp152:
.LBB2_23:
	#DEBUG_VALUE: execute<S, int &, (lambda at ./new2.cpp:66:36)>:this <- [DW_OP_stack_value] $rbx
	#DEBUG_VALUE: execute<S, int &, (lambda at ./new2.cpp:108:59)>:this <- $rbx
	#DEBUG_VALUE: execute<S, int &, (lambda at ./new2.cpp:66:36)>:scheduler <- $r14
	#DEBUG_VALUE: execute<S, int &, (lambda at ./new2.cpp:108:59)>:scheduler <- $r14
.Ltmp81:
	.loc	60 0 11 is_stmt 0       # /usr/bin/../lib64/gcc/x86_64-pc-linux-gnu/8.0.0/../../../../include/c++/8.0.0/thread:0:11
	movq	%rax, %rbx
.Ltmp153:
	.loc	61 273 6 is_stmt 1      # /usr/bin/../lib64/gcc/x86_64-pc-linux-gnu/8.0.0/../../../../include/c++/8.0.0/bits/unique_ptr.h:273:6
	movq	8(%rsp), %rdi
.Ltmp154:
	#DEBUG_VALUE: operator():__ptr <- $rdi
	.loc	61 273 12 is_stmt 0     # /usr/bin/../lib64/gcc/x86_64-pc-linux-gnu/8.0.0/../../../../include/c++/8.0.0/bits/unique_ptr.h:273:12
	testq	%rdi, %rdi
.Ltmp155:
	.loc	61 273 6                # /usr/bin/../lib64/gcc/x86_64-pc-linux-gnu/8.0.0/../../../../include/c++/8.0.0/bits/unique_ptr.h:273:6
	jne	.LBB2_8
	jmp	.LBB2_9
.Ltmp156:
.LBB2_10:
	#DEBUG_VALUE: execute<S, int &, (lambda at ./new2.cpp:66:36)>:this <- [DW_OP_stack_value] $rbx
	#DEBUG_VALUE: execute<S, int &, (lambda at ./new2.cpp:108:59)>:this <- $rbx
	#DEBUG_VALUE: execute<S, int &, (lambda at ./new2.cpp:66:36)>:scheduler <- $r14
	#DEBUG_VALUE: execute<S, int &, (lambda at ./new2.cpp:108:59)>:scheduler <- $r14
.Ltmp78:
	.loc	61 0 6                  # /usr/bin/../lib64/gcc/x86_64-pc-linux-gnu/8.0.0/../../../../include/c++/8.0.0/bits/unique_ptr.h:0:6
	movq	%rax, %rbx
.Ltmp157:
	#DEBUG_VALUE: operator==:__y <- 0
	.loc	60 276 26 is_stmt 1     # /usr/bin/../lib64/gcc/x86_64-pc-linux-gnu/8.0.0/../../../../include/c++/8.0.0/thread:276:26
	cmpq	$0, (%rsp)
.Ltmp158:
	.loc	60 134 11               # /usr/bin/../lib64/gcc/x86_64-pc-linux-gnu/8.0.0/../../../../include/c++/8.0.0/thread:134:11
	je	.LBB2_9
.Ltmp159:
.LBB2_5:
	#DEBUG_VALUE: execute<S, int &, (lambda at ./new2.cpp:66:36)>:scheduler <- $r14
	#DEBUG_VALUE: execute<S, int &, (lambda at ./new2.cpp:108:59)>:scheduler <- $r14
	.loc	60 135 2                # /usr/bin/../lib64/gcc/x86_64-pc-linux-gnu/8.0.0/../../../../include/c++/8.0.0/thread:135:2
	callq	_ZSt9terminatev
.Ltmp160:
.LBB2_6:
	#DEBUG_VALUE: thread<(lambda at ./new2.cpp:107:23)>:this <- [$rsp+0]
	#DEBUG_VALUE: execute<S, int &, (lambda at ./new2.cpp:66:36)>:this <- [DW_OP_stack_value] $rbx
	#DEBUG_VALUE: execute<S, int &, (lambda at ./new2.cpp:108:59)>:this <- $rbx
	#DEBUG_VALUE: execute<S, int &, (lambda at ./new2.cpp:66:36)>:scheduler <- $r14
	#DEBUG_VALUE: execute<S, int &, (lambda at ./new2.cpp:108:59)>:scheduler <- $r14
.Ltmp75:
	.loc	60 0 2 is_stmt 0        # /usr/bin/../lib64/gcc/x86_64-pc-linux-gnu/8.0.0/../../../../include/c++/8.0.0/thread:0:2
	movq	%rax, %rbx
.Ltmp161:
	.loc	61 273 6 is_stmt 1      # /usr/bin/../lib64/gcc/x86_64-pc-linux-gnu/8.0.0/../../../../include/c++/8.0.0/bits/unique_ptr.h:273:6
	movq	8(%rsp), %rdi
.Ltmp162:
	#DEBUG_VALUE: operator():__ptr <- $rdi
	.loc	61 273 12 is_stmt 0     # /usr/bin/../lib64/gcc/x86_64-pc-linux-gnu/8.0.0/../../../../include/c++/8.0.0/bits/unique_ptr.h:273:12
	testq	%rdi, %rdi
.Ltmp163:
	.loc	61 273 6                # /usr/bin/../lib64/gcc/x86_64-pc-linux-gnu/8.0.0/../../../../include/c++/8.0.0/bits/unique_ptr.h:273:6
	je	.LBB2_9
.Ltmp164:
.LBB2_8:
	#DEBUG_VALUE: operator():__ptr <- $rdi
	#DEBUG_VALUE: execute<S, int &, (lambda at ./new2.cpp:66:36)>:scheduler <- $r14
	#DEBUG_VALUE: execute<S, int &, (lambda at ./new2.cpp:108:59)>:scheduler <- $r14
	.loc	61 81 2 is_stmt 1       # /usr/bin/../lib64/gcc/x86_64-pc-linux-gnu/8.0.0/../../../../include/c++/8.0.0/bits/unique_ptr.h:81:2
	movq	(%rdi), %rax
	callq	*8(%rax)
.Ltmp165:
.LBB2_9:
	.loc	61 0 2 is_stmt 0        # /usr/bin/../lib64/gcc/x86_64-pc-linux-gnu/8.0.0/../../../../include/c++/8.0.0/bits/unique_ptr.h:0:2
	movq	%rbx, %rdi
	callq	_Unwind_Resume
.Lfunc_end2:
	.size	_ZNSt6thread11_State_implINS_8_InvokerISt5tupleIJZZN8node_andIJ8node_seqIS3_IJS4_I4leafIiZ4mainE3$_0ES5_IiZ4mainE3$_1EES4_IS5_IiZ4mainE3$_2ES5_IiZ4mainE3$_3EES4_IS5_IiZ4mainE3$_4ES5_IiZ4mainE3$_5EEEES5_IS2_IJiiiEEZ4mainE4$_10EES4_IS3_IJS4_IS5_IiZ4mainE3$_6ES5_IiZ4mainE3$_7EES4_IS5_IiZ4mainE3$_8ES5_IiZ4mainE3$_9EEEES5_IS2_IJiiEEZ4mainE4$_11EEEE7executeI1SiZ4mainE4$_12EEvRT_OT0_OT1_ENKUlS19_RS1B_E_clISt17integral_constantImLm0EESP_EEDaS19_S1F_EUlvE_EEEEE6_M_runEv, .Lfunc_end2-_ZNSt6thread11_State_implINS_8_InvokerISt5tupleIJZZN8node_andIJ8node_seqIS3_IJS4_I4leafIiZ4mainE3$_0ES5_IiZ4mainE3$_1EES4_IS5_IiZ4mainE3$_2ES5_IiZ4mainE3$_3EES4_IS5_IiZ4mainE3$_4ES5_IiZ4mainE3$_5EEEES5_IS2_IJiiiEEZ4mainE4$_10EES4_IS3_IJS4_IS5_IiZ4mainE3$_6ES5_IiZ4mainE3$_7EES4_IS5_IiZ4mainE3$_8ES5_IiZ4mainE3$_9EEEES5_IS2_IJiiEEZ4mainE4$_11EEEE7executeI1SiZ4mainE4$_12EEvRT_OT0_OT1_ENKUlS19_RS1B_E_clISt17integral_constantImLm0EESP_EEDaS19_S1F_EUlvE_EEEEE6_M_runEv
	.cfi_endproc
	.section	.gcc_except_table,"a",@progbits
	.p2align	2
GCC_except_table2:
.Lexception1:
	.byte	255                     # @LPStart Encoding = omit
	.byte	255                     # @TType Encoding = omit
	.byte	1                       # Call site Encoding = uleb128
	.uleb128 .Lcst_end1-.Lcst_begin1
.Lcst_begin1:
	.uleb128 .Lfunc_begin2-.Lfunc_begin2 # >> Call Site 1 <<
	.uleb128 .Ltmp73-.Lfunc_begin2  #   Call between .Lfunc_begin2 and .Ltmp73
	.byte	0                       #     has no landing pad
	.byte	0                       #   On action: cleanup
	.uleb128 .Ltmp73-.Lfunc_begin2  # >> Call Site 2 <<
	.uleb128 .Ltmp74-.Ltmp73        #   Call between .Ltmp73 and .Ltmp74
	.uleb128 .Ltmp75-.Lfunc_begin2  #     jumps to .Ltmp75
	.byte	0                       #   On action: cleanup
	.uleb128 .Ltmp74-.Lfunc_begin2  # >> Call Site 3 <<
	.uleb128 .Ltmp76-.Ltmp74        #   Call between .Ltmp74 and .Ltmp76
	.byte	0                       #     has no landing pad
	.byte	0                       #   On action: cleanup
	.uleb128 .Ltmp76-.Lfunc_begin2  # >> Call Site 4 <<
	.uleb128 .Ltmp77-.Ltmp76        #   Call between .Ltmp76 and .Ltmp77
	.uleb128 .Ltmp78-.Lfunc_begin2  #     jumps to .Ltmp78
	.byte	0                       #   On action: cleanup
	.uleb128 .Ltmp77-.Lfunc_begin2  # >> Call Site 5 <<
	.uleb128 .Ltmp79-.Ltmp77        #   Call between .Ltmp77 and .Ltmp79
	.byte	0                       #     has no landing pad
	.byte	0                       #   On action: cleanup
	.uleb128 .Ltmp79-.Lfunc_begin2  # >> Call Site 6 <<
	.uleb128 .Ltmp80-.Ltmp79        #   Call between .Ltmp79 and .Ltmp80
	.uleb128 .Ltmp81-.Lfunc_begin2  #     jumps to .Ltmp81
	.byte	0                       #   On action: cleanup
	.uleb128 .Ltmp80-.Lfunc_begin2  # >> Call Site 7 <<
	.uleb128 .Ltmp82-.Ltmp80        #   Call between .Ltmp80 and .Ltmp82
	.byte	0                       #     has no landing pad
	.byte	0                       #   On action: cleanup
	.uleb128 .Ltmp82-.Lfunc_begin2  # >> Call Site 8 <<
	.uleb128 .Ltmp83-.Ltmp82        #   Call between .Ltmp82 and .Ltmp83
	.uleb128 .Ltmp84-.Lfunc_begin2  #     jumps to .Ltmp84
	.byte	0                       #   On action: cleanup
	.uleb128 .Ltmp83-.Lfunc_begin2  # >> Call Site 9 <<
	.uleb128 .Ltmp85-.Ltmp83        #   Call between .Ltmp83 and .Ltmp85
	.byte	0                       #     has no landing pad
	.byte	0                       #   On action: cleanup
	.uleb128 .Ltmp85-.Lfunc_begin2  # >> Call Site 10 <<
	.uleb128 .Ltmp86-.Ltmp85        #   Call between .Ltmp85 and .Ltmp86
	.uleb128 .Ltmp87-.Lfunc_begin2  #     jumps to .Ltmp87
	.byte	0                       #   On action: cleanup
	.uleb128 .Ltmp86-.Lfunc_begin2  # >> Call Site 11 <<
	.uleb128 .Ltmp88-.Ltmp86        #   Call between .Ltmp86 and .Ltmp88
	.byte	0                       #     has no landing pad
	.byte	0                       #   On action: cleanup
	.uleb128 .Ltmp88-.Lfunc_begin2  # >> Call Site 12 <<
	.uleb128 .Ltmp89-.Ltmp88        #   Call between .Ltmp88 and .Ltmp89
	.uleb128 .Ltmp90-.Lfunc_begin2  #     jumps to .Ltmp90
	.byte	0                       #   On action: cleanup
	.uleb128 .Ltmp89-.Lfunc_begin2  # >> Call Site 13 <<
	.uleb128 .Lfunc_end2-.Ltmp89    #   Call between .Ltmp89 and .Lfunc_end2
	.byte	0                       #     has no landing pad
	.byte	0                       #   On action: cleanup
.Lcst_end1:
	.p2align	2
                                        # -- End function
	.text
	.p2align	4, 0x90         # -- Begin function _ZNSt6thread11_State_implINS_8_InvokerISt5tupleIJZZN8node_andIJ8node_seqI4leafIiZ4mainE3$_0ES5_IiZ4mainE3$_1EES4_IS5_IiZ4mainE3$_2ES5_IiZ4mainE3$_3EES4_IS5_IiZ4mainE3$_4ES5_IiZ4mainE3$_5EEEE7executeI1SRiZNS4_ISL_S5_IS2_IJiiiEEZ4mainE4$_10EE7executeISN_SO_ZZZNS3_IJSS_S4_IS3_IJS4_IS5_IiZ4mainE3$_6ES5_IiZ4mainE3$_7EES4_IS5_IiZ4mainE3$_8ES5_IiZ4mainE3$_9EEEES5_IS2_IJiiEEZ4mainE4$_11EEEE7executeISN_iZ4mainE4$_12EEvRT_OT0_OT1_ENKUlS1C_RS1E_E_clISt17integral_constantImLm0EESS_EEDaS1C_S1I_ENKUlvE_clEvEUlOS1C_E_EEvS1D_S1F_S1H_EUlS1P_E_EEvS1D_S1F_S1H_ENKUlS1C_S1I_E_clIS1M_SA_EES1N_S1C_S1I_EUlvE_EEEEED0Ev
	.type	_ZNSt6thread11_State_implINS_8_InvokerISt5tupleIJZZN8node_andIJ8node_seqI4leafIiZ4mainE3$_0ES5_IiZ4mainE3$_1EES4_IS5_IiZ4mainE3$_2ES5_IiZ4mainE3$_3EES4_IS5_IiZ4mainE3$_4ES5_IiZ4mainE3$_5EEEE7executeI1SRiZNS4_ISL_S5_IS2_IJiiiEEZ4mainE4$_10EE7executeISN_SO_ZZZNS3_IJSS_S4_IS3_IJS4_IS5_IiZ4mainE3$_6ES5_IiZ4mainE3$_7EES4_IS5_IiZ4mainE3$_8ES5_IiZ4mainE3$_9EEEES5_IS2_IJiiEEZ4mainE4$_11EEEE7executeISN_iZ4mainE4$_12EEvRT_OT0_OT1_ENKUlS1C_RS1E_E_clISt17integral_constantImLm0EESS_EEDaS1C_S1I_ENKUlvE_clEvEUlOS1C_E_EEvS1D_S1F_S1H_EUlS1P_E_EEvS1D_S1F_S1H_ENKUlS1C_S1I_E_clIS1M_SA_EES1N_S1C_S1I_EUlvE_EEEEED0Ev,@function
_ZNSt6thread11_State_implINS_8_InvokerISt5tupleIJZZN8node_andIJ8node_seqI4leafIiZ4mainE3$_0ES5_IiZ4mainE3$_1EES4_IS5_IiZ4mainE3$_2ES5_IiZ4mainE3$_3EES4_IS5_IiZ4mainE3$_4ES5_IiZ4mainE3$_5EEEE7executeI1SRiZNS4_ISL_S5_IS2_IJiiiEEZ4mainE4$_10EE7executeISN_SO_ZZZNS3_IJSS_S4_IS3_IJS4_IS5_IiZ4mainE3$_6ES5_IiZ4mainE3$_7EES4_IS5_IiZ4mainE3$_8ES5_IiZ4mainE3$_9EEEES5_IS2_IJiiEEZ4mainE4$_11EEEE7executeISN_iZ4mainE4$_12EEvRT_OT0_OT1_ENKUlS1C_RS1E_E_clISt17integral_constantImLm0EESS_EEDaS1C_S1I_ENKUlvE_clEvEUlOS1C_E_EEvS1D_S1F_S1H_EUlS1P_E_EEvS1D_S1F_S1H_ENKUlS1C_S1I_E_clIS1M_SA_EES1N_S1C_S1I_EUlvE_EEEEED0Ev: # @"_ZNSt6thread11_State_implINS_8_InvokerISt5tupleIJZZN8node_andIJ8node_seqI4leafIiZ4mainE3$_0ES5_IiZ4mainE3$_1EES4_IS5_IiZ4mainE3$_2ES5_IiZ4mainE3$_3EES4_IS5_IiZ4mainE3$_4ES5_IiZ4mainE3$_5EEEE7executeI1SRiZNS4_ISL_S5_IS2_IJiiiEEZ4mainE4$_10EE7executeISN_SO_ZZZNS3_IJSS_S4_IS3_IJS4_IS5_IiZ4mainE3$_6ES5_IiZ4mainE3$_7EES4_IS5_IiZ4mainE3$_8ES5_IiZ4mainE3$_9EEEES5_IS2_IJiiEEZ4mainE4$_11EEEE7executeISN_iZ4mainE4$_12EEvRT_OT0_OT1_ENKUlS1C_RS1E_E_clISt17integral_constantImLm0EESS_EEDaS1C_S1I_ENKUlvE_clEvEUlOS1C_E_EEvS1D_S1F_S1H_EUlS1P_E_EEvS1D_S1F_S1H_ENKUlS1C_S1I_E_clIS1M_SA_EES1N_S1C_S1I_EUlvE_EEEEED0Ev"
.Lfunc_begin3:
	.loc	60 178 0 is_stmt 1      # /usr/bin/../lib64/gcc/x86_64-pc-linux-gnu/8.0.0/../../../../include/c++/8.0.0/thread:178:0
	.cfi_startproc
# %bb.0:
	pushq	%rbx
	.cfi_def_cfa_offset 16
	.cfi_offset %rbx, -16
	#DEBUG_VALUE: ~_State_impl:this <- $rdi
	movq	%rdi, %rbx
.Ltmp166:
	#DEBUG_VALUE: ~_State_impl:this <- $rbx
	.loc	60 178 14 prologue_end  # /usr/bin/../lib64/gcc/x86_64-pc-linux-gnu/8.0.0/../../../../include/c++/8.0.0/thread:178:14
	callq	_ZNSt6thread6_StateD2Ev
	movq	%rbx, %rdi
	popq	%rbx
.Ltmp167:
	jmp	_ZdlPv                  # TAILCALL
.Ltmp168:
.Lfunc_end3:
	.size	_ZNSt6thread11_State_implINS_8_InvokerISt5tupleIJZZN8node_andIJ8node_seqI4leafIiZ4mainE3$_0ES5_IiZ4mainE3$_1EES4_IS5_IiZ4mainE3$_2ES5_IiZ4mainE3$_3EES4_IS5_IiZ4mainE3$_4ES5_IiZ4mainE3$_5EEEE7executeI1SRiZNS4_ISL_S5_IS2_IJiiiEEZ4mainE4$_10EE7executeISN_SO_ZZZNS3_IJSS_S4_IS3_IJS4_IS5_IiZ4mainE3$_6ES5_IiZ4mainE3$_7EES4_IS5_IiZ4mainE3$_8ES5_IiZ4mainE3$_9EEEES5_IS2_IJiiEEZ4mainE4$_11EEEE7executeISN_iZ4mainE4$_12EEvRT_OT0_OT1_ENKUlS1C_RS1E_E_clISt17integral_constantImLm0EESS_EEDaS1C_S1I_ENKUlvE_clEvEUlOS1C_E_EEvS1D_S1F_S1H_EUlS1P_E_EEvS1D_S1F_S1H_ENKUlS1C_S1I_E_clIS1M_SA_EES1N_S1C_S1I_EUlvE_EEEEED0Ev, .Lfunc_end3-_ZNSt6thread11_State_implINS_8_InvokerISt5tupleIJZZN8node_andIJ8node_seqI4leafIiZ4mainE3$_0ES5_IiZ4mainE3$_1EES4_IS5_IiZ4mainE3$_2ES5_IiZ4mainE3$_3EES4_IS5_IiZ4mainE3$_4ES5_IiZ4mainE3$_5EEEE7executeI1SRiZNS4_ISL_S5_IS2_IJiiiEEZ4mainE4$_10EE7executeISN_SO_ZZZNS3_IJSS_S4_IS3_IJS4_IS5_IiZ4mainE3$_6ES5_IiZ4mainE3$_7EES4_IS5_IiZ4mainE3$_8ES5_IiZ4mainE3$_9EEEES5_IS2_IJiiEEZ4mainE4$_11EEEE7executeISN_iZ4mainE4$_12EEvRT_OT0_OT1_ENKUlS1C_RS1E_E_clISt17integral_constantImLm0EESS_EEDaS1C_S1I_ENKUlvE_clEvEUlOS1C_E_EEvS1D_S1F_S1H_EUlS1P_E_EEvS1D_S1F_S1H_ENKUlS1C_S1I_E_clIS1M_SA_EES1N_S1C_S1I_EUlvE_EEEEED0Ev
	.cfi_endproc
                                        # -- End function
	.p2align	4, 0x90         # -- Begin function _ZNSt6thread11_State_implINS_8_InvokerISt5tupleIJZZN8node_andIJ8node_seqI4leafIiZ4mainE3$_0ES5_IiZ4mainE3$_1EES4_IS5_IiZ4mainE3$_2ES5_IiZ4mainE3$_3EES4_IS5_IiZ4mainE3$_4ES5_IiZ4mainE3$_5EEEE7executeI1SRiZNS4_ISL_S5_IS2_IJiiiEEZ4mainE4$_10EE7executeISN_SO_ZZZNS3_IJSS_S4_IS3_IJS4_IS5_IiZ4mainE3$_6ES5_IiZ4mainE3$_7EES4_IS5_IiZ4mainE3$_8ES5_IiZ4mainE3$_9EEEES5_IS2_IJiiEEZ4mainE4$_11EEEE7executeISN_iZ4mainE4$_12EEvRT_OT0_OT1_ENKUlS1C_RS1E_E_clISt17integral_constantImLm0EESS_EEDaS1C_S1I_ENKUlvE_clEvEUlOS1C_E_EEvS1D_S1F_S1H_EUlS1P_E_EEvS1D_S1F_S1H_ENKUlS1C_S1I_E_clIS1M_SA_EES1N_S1C_S1I_EUlvE_EEEEE6_M_runEv
	.type	_ZNSt6thread11_State_implINS_8_InvokerISt5tupleIJZZN8node_andIJ8node_seqI4leafIiZ4mainE3$_0ES5_IiZ4mainE3$_1EES4_IS5_IiZ4mainE3$_2ES5_IiZ4mainE3$_3EES4_IS5_IiZ4mainE3$_4ES5_IiZ4mainE3$_5EEEE7executeI1SRiZNS4_ISL_S5_IS2_IJiiiEEZ4mainE4$_10EE7executeISN_SO_ZZZNS3_IJSS_S4_IS3_IJS4_IS5_IiZ4mainE3$_6ES5_IiZ4mainE3$_7EES4_IS5_IiZ4mainE3$_8ES5_IiZ4mainE3$_9EEEES5_IS2_IJiiEEZ4mainE4$_11EEEE7executeISN_iZ4mainE4$_12EEvRT_OT0_OT1_ENKUlS1C_RS1E_E_clISt17integral_constantImLm0EESS_EEDaS1C_S1I_ENKUlvE_clEvEUlOS1C_E_EEvS1D_S1F_S1H_EUlS1P_E_EEvS1D_S1F_S1H_ENKUlS1C_S1I_E_clIS1M_SA_EES1N_S1C_S1I_EUlvE_EEEEE6_M_runEv,@function
_ZNSt6thread11_State_implINS_8_InvokerISt5tupleIJZZN8node_andIJ8node_seqI4leafIiZ4mainE3$_0ES5_IiZ4mainE3$_1EES4_IS5_IiZ4mainE3$_2ES5_IiZ4mainE3$_3EES4_IS5_IiZ4mainE3$_4ES5_IiZ4mainE3$_5EEEE7executeI1SRiZNS4_ISL_S5_IS2_IJiiiEEZ4mainE4$_10EE7executeISN_SO_ZZZNS3_IJSS_S4_IS3_IJS4_IS5_IiZ4mainE3$_6ES5_IiZ4mainE3$_7EES4_IS5_IiZ4mainE3$_8ES5_IiZ4mainE3$_9EEEES5_IS2_IJiiEEZ4mainE4$_11EEEE7executeISN_iZ4mainE4$_12EEvRT_OT0_OT1_ENKUlS1C_RS1E_E_clISt17integral_constantImLm0EESS_EEDaS1C_S1I_ENKUlvE_clEvEUlOS1C_E_EEvS1D_S1F_S1H_EUlS1P_E_EEvS1D_S1F_S1H_ENKUlS1C_S1I_E_clIS1M_SA_EES1N_S1C_S1I_EUlvE_EEEEE6_M_runEv: # @"_ZNSt6thread11_State_implINS_8_InvokerISt5tupleIJZZN8node_andIJ8node_seqI4leafIiZ4mainE3$_0ES5_IiZ4mainE3$_1EES4_IS5_IiZ4mainE3$_2ES5_IiZ4mainE3$_3EES4_IS5_IiZ4mainE3$_4ES5_IiZ4mainE3$_5EEEE7executeI1SRiZNS4_ISL_S5_IS2_IJiiiEEZ4mainE4$_10EE7executeISN_SO_ZZZNS3_IJSS_S4_IS3_IJS4_IS5_IiZ4mainE3$_6ES5_IiZ4mainE3$_7EES4_IS5_IiZ4mainE3$_8ES5_IiZ4mainE3$_9EEEES5_IS2_IJiiEEZ4mainE4$_11EEEE7executeISN_iZ4mainE4$_12EEvRT_OT0_OT1_ENKUlS1C_RS1E_E_clISt17integral_constantImLm0EESS_EEDaS1C_S1I_ENKUlvE_clEvEUlOS1C_E_EEvS1D_S1F_S1H_EUlS1P_E_EEvS1D_S1F_S1H_ENKUlS1C_S1I_E_clIS1M_SA_EES1N_S1C_S1I_EUlvE_EEEEE6_M_runEv"
.Lfunc_begin4:
	.loc	60 186 0                # /usr/bin/../lib64/gcc/x86_64-pc-linux-gnu/8.0.0/../../../../include/c++/8.0.0/thread:186:0
	.cfi_startproc
# %bb.0:
	pushq	%r15
	.cfi_def_cfa_offset 16
	pushq	%r14
	.cfi_def_cfa_offset 24
	pushq	%rbx
	.cfi_def_cfa_offset 32
	subq	$16, %rsp
	.cfi_def_cfa_offset 48
	.cfi_offset %rbx, -32
	.cfi_offset %r14, -24
	.cfi_offset %r15, -16
	#DEBUG_VALUE: _M_run:this <- $rdi
.Ltmp169:
	#DEBUG_VALUE: operator():this <- [DW_OP_plus_uconst 8, DW_OP_stack_value] $rdi
	#DEBUG_VALUE: _M_invoke<0>:this <- [DW_OP_plus_uconst 8, DW_OP_stack_value] $rdi
	#DEBUG_VALUE: __invoke<(lambda at ./new2.cpp:107:23)>:__fn <- [DW_OP_plus_uconst 8, DW_OP_stack_value] $rdi
	#DEBUG_VALUE: __invoke_impl<void, (lambda at ./new2.cpp:107:23)>:__f <- [DW_OP_plus_uconst 8, DW_OP_stack_value] $rdi
	#DEBUG_VALUE: operator():this <- [DW_OP_plus_uconst 8, DW_OP_stack_value] $rdi
	#DEBUG_VALUE: execute<S, int &, (lambda at ./new2.cpp:108:59)>:this <- [DW_OP_plus_uconst 8, DW_OP_plus_uconst 48, DW_OP_deref, DW_OP_stack_value] $rdi
	#DEBUG_VALUE: execute<S, int &, (lambda at ./new2.cpp:108:59)>:scheduler <- [DW_OP_plus_uconst 8, DW_OP_plus_uconst 56, DW_OP_deref, DW_OP_stack_value] $rdi
	#DEBUG_VALUE: execute<S, std::tuple<int, int, int> &, const (lambda at ./new2.cpp:108:59) &>:then <- [DW_OP_plus_uconst 8, DW_OP_plus_uconst 16, DW_OP_stack_value] $rdi
	movq	%rdi, %r14
.Ltmp170:
	#DEBUG_VALUE: execute<S, std::tuple<int, int, int> &, const (lambda at ./new2.cpp:108:59) &>:then <- [DW_OP_plus_uconst 8, DW_OP_plus_uconst 16, DW_OP_stack_value] $r14
	movq	48(%rdi), %r15
.Ltmp171:
	#DEBUG_VALUE: operator(): <- 0
	#DEBUG_VALUE: get<0, int, int, int>:__t <- [DW_OP_plus_uconst 8, DW_OP_stack_value] $r15
	#DEBUG_VALUE: __get_helper<0, int, int, int>:__t <- [DW_OP_plus_uconst 8, DW_OP_stack_value] $r15
	#DEBUG_VALUE: _M_head:__t <- [DW_OP_plus_uconst 8, DW_OP_stack_value] $r15
	#DEBUG_VALUE: _M_head:__b <- [DW_OP_plus_uconst 8, DW_OP_plus_uconst 8, DW_OP_stack_value] $r15
	#DEBUG_VALUE: operator()<std::tuple<int, int, int> &>:out <- [DW_OP_plus_uconst 8, DW_OP_stack_value] $r15
	#DEBUG_VALUE: execute<S, std::tuple<int, int, int> &, const (lambda at ./new2.cpp:108:59) &>:input <- [DW_OP_plus_uconst 8, DW_OP_stack_value] $r15
	#DEBUG_VALUE: operator()<std::tuple<int, int, int> >:t <- [DW_OP_plus_uconst 8, DW_OP_stack_value] $r15
	#DEBUG_VALUE: get<1, int, int, int>:__t <- [DW_OP_plus_uconst 8, DW_OP_stack_value] $r15
	#DEBUG_VALUE: __get_helper<1, int, int>:__t <- [DW_OP_plus_uconst 8, DW_OP_stack_value] $r15
	#DEBUG_VALUE: _M_head:__t <- [DW_OP_plus_uconst 8, DW_OP_stack_value] $r15
	#DEBUG_VALUE: _M_head:__b <- [DW_OP_plus_uconst 8, DW_OP_plus_uconst 4, DW_OP_stack_value] $r15
	#DEBUG_VALUE: get<2, int, int, int>:__t <- [DW_OP_plus_uconst 8, DW_OP_stack_value] $r15
	#DEBUG_VALUE: __get_helper<2, int>:__t <- [DW_OP_plus_uconst 8, DW_OP_stack_value] $r15
	#DEBUG_VALUE: _M_head:__t <- [DW_OP_plus_uconst 8, DW_OP_stack_value] $r15
	#DEBUG_VALUE: _M_head:__b <- [DW_OP_plus_uconst 8, DW_OP_stack_value] $r15
	#DEBUG_VALUE: execute<S, int &, (lambda at ./new2.cpp:108:59)>:scheduler <- [DW_OP_plus_uconst 8, DW_OP_plus_uconst 56, DW_OP_deref, DW_OP_stack_value] $r14
	#DEBUG_VALUE: execute<S, int &, (lambda at ./new2.cpp:108:59)>:this <- [DW_OP_plus_uconst 8, DW_OP_plus_uconst 48, DW_OP_deref, DW_OP_stack_value] $r14
	#DEBUG_VALUE: operator():this <- [DW_OP_plus_uconst 8, DW_OP_stack_value] $r14
	#DEBUG_VALUE: __invoke_impl<void, (lambda at ./new2.cpp:107:23)>:__f <- [DW_OP_plus_uconst 8, DW_OP_stack_value] $r14
	#DEBUG_VALUE: __invoke<(lambda at ./new2.cpp:107:23)>:__fn <- [DW_OP_plus_uconst 8, DW_OP_stack_value] $r14
	#DEBUG_VALUE: _M_invoke<0>:this <- [DW_OP_plus_uconst 8, DW_OP_stack_value] $r14
	#DEBUG_VALUE: operator():this <- [DW_OP_plus_uconst 8, DW_OP_stack_value] $r14
	#DEBUG_VALUE: _M_run:this <- $r14
	.file	67 "/usr/bin/../lib64/gcc/x86_64-pc-linux-gnu/8.0.0/../../../../include/c++/8.0.0" "ostream"
	.loc	67 561 2 prologue_end   # /usr/bin/../lib64/gcc/x86_64-pc-linux-gnu/8.0.0/../../../../include/c++/8.0.0/ostream:561:2
	movl	$_ZSt4cout, %edi
	movl	$.L.str.3, %esi
.Ltmp172:
	#DEBUG_VALUE: operator<<<std::char_traits<char> >:__s <- $rsi
	movl	$3, %edx
	callq	_ZSt16__ostream_insertIcSt11char_traitsIcEERSt13basic_ostreamIT_T0_ES6_PKS3_l
.Ltmp173:
	#DEBUG_VALUE: operator():x <- 0
	#DEBUG_VALUE: operator<<<std::char_traits<char> >:__out <- undef
	.loc	67 561 2 is_stmt 0      # /usr/bin/../lib64/gcc/x86_64-pc-linux-gnu/8.0.0/../../../../include/c++/8.0.0/ostream:561:2
	movl	$_ZSt4cout, %edi
	movl	$.L.str.1, %esi
.Ltmp174:
	#DEBUG_VALUE: operator<<<std::char_traits<char> >:__s <- $rsi
	movl	$1, %edx
	callq	_ZSt16__ostream_insertIcSt11char_traitsIcEERSt13basic_ostreamIT_T0_ES6_PKS3_l
.Ltmp175:
	.loc	4 155 39 is_stmt 1      # ./new2.cpp:155:39
	movl	$_ZSt4cout, %edi
.Ltmp176:
	#DEBUG_VALUE: operator<<<std::char_traits<char> >:__out <- $rdi
	xorl	%esi, %esi
	callq	_ZNSolsEi
.Ltmp177:
	#DEBUG_VALUE: operator<<<std::char_traits<char> >:__out <- $rax
	.loc	67 561 2                # /usr/bin/../lib64/gcc/x86_64-pc-linux-gnu/8.0.0/../../../../include/c++/8.0.0/ostream:561:2
	movl	$.L.str.2, %esi
.Ltmp178:
	#DEBUG_VALUE: operator<<<std::char_traits<char> >:__s <- $rsi
	movl	$5, %edx
	movq	%rax, %rdi
	callq	_ZSt16__ostream_insertIcSt11char_traitsIcEERSt13basic_ostreamIT_T0_ES6_PKS3_l
.Ltmp179:
	.loc	4 109 42                # ./new2.cpp:109:42
	movl	$1, 16(%r15)
.Ltmp180:
	#DEBUG_VALUE: fetch_sub:__m <- 5
	#DEBUG_VALUE: fetch_sub:__i <- 1
	#DEBUG_VALUE: fetch_sub:this <- [DW_OP_stack_value] $r15
	.loc	13 524 16               # /usr/bin/../lib64/gcc/x86_64-pc-linux-gnu/8.0.0/../../../../include/c++/8.0.0/bits/atomic_base.h:524:16
	lock		subl	$1, (%r15)
.Ltmp181:
	.loc	4 111 24                # ./new2.cpp:111:24
	jne	.LBB4_2
.Ltmp182:
# %bb.1:
	#DEBUG_VALUE: _M_run:this <- $r14
	#DEBUG_VALUE: operator():this <- [DW_OP_plus_uconst 8, DW_OP_stack_value] $r14
	#DEBUG_VALUE: _M_invoke<0>:this <- [DW_OP_plus_uconst 8, DW_OP_stack_value] $r14
	#DEBUG_VALUE: __invoke<(lambda at ./new2.cpp:107:23)>:__fn <- [DW_OP_plus_uconst 8, DW_OP_stack_value] $r14
	#DEBUG_VALUE: __invoke_impl<void, (lambda at ./new2.cpp:107:23)>:__f <- [DW_OP_plus_uconst 8, DW_OP_stack_value] $r14
	#DEBUG_VALUE: operator():this <- [DW_OP_plus_uconst 8, DW_OP_stack_value] $r14
	#DEBUG_VALUE: execute<S, int &, (lambda at ./new2.cpp:108:59)>:this <- [DW_OP_plus_uconst 8, DW_OP_plus_uconst 48, DW_OP_deref, DW_OP_stack_value] $r14
	#DEBUG_VALUE: execute<S, int &, (lambda at ./new2.cpp:108:59)>:scheduler <- [DW_OP_plus_uconst 8, DW_OP_plus_uconst 56, DW_OP_deref, DW_OP_stack_value] $r14
	#DEBUG_VALUE: operator()<std::tuple<int, int, int> >:t <- [DW_OP_plus_uconst 8, DW_OP_stack_value] $r15
	#DEBUG_VALUE: execute<S, std::tuple<int, int, int> &, const (lambda at ./new2.cpp:108:59) &>:input <- [DW_OP_plus_uconst 8, DW_OP_stack_value] $r15
	#DEBUG_VALUE: operator()<std::tuple<int, int, int> &>:out <- [DW_OP_plus_uconst 8, DW_OP_stack_value] $r15
	#DEBUG_VALUE: execute<S, std::tuple<int, int, int> &, const (lambda at ./new2.cpp:108:59) &>:then <- [DW_OP_plus_uconst 8, DW_OP_plus_uconst 16, DW_OP_stack_value] $r14
	.loc	4 183 52                # ./new2.cpp:183:52
	movl	16(%r15), %esi
	.loc	4 183 49 is_stmt 0      # ./new2.cpp:183:49
	movl	$_ZSt4cout, %edi
	callq	_ZNSolsEi
	movq	%rax, %rbx
.Ltmp183:
	#DEBUG_VALUE: operator<<<std::char_traits<char> >:__out <- $rbx
	.loc	67 561 2 is_stmt 1      # /usr/bin/../lib64/gcc/x86_64-pc-linux-gnu/8.0.0/../../../../include/c++/8.0.0/ostream:561:2
	movl	$.L.str, %esi
	movl	$2, %edx
	movq	%rax, %rdi
	callq	_ZSt16__ostream_insertIcSt11char_traitsIcEERSt13basic_ostreamIT_T0_ES6_PKS3_l
.Ltmp184:
	.loc	4 184 52                # ./new2.cpp:184:52
	movl	12(%r15), %esi
	.loc	4 184 49 is_stmt 0      # ./new2.cpp:184:49
	movq	%rbx, %rdi
	callq	_ZNSolsEi
	movq	%rax, %rbx
.Ltmp185:
	#DEBUG_VALUE: operator<<<std::char_traits<char> >:__out <- $rbx
	#DEBUG_VALUE: operator<<<std::char_traits<char> >:__s <- undef
	.loc	67 561 2 is_stmt 1      # /usr/bin/../lib64/gcc/x86_64-pc-linux-gnu/8.0.0/../../../../include/c++/8.0.0/ostream:561:2
	movl	$.L.str, %esi
.Ltmp186:
	#DEBUG_VALUE: operator<<<std::char_traits<char> >:__s <- $rsi
	movl	$2, %edx
	movq	%rax, %rdi
	callq	_ZSt16__ostream_insertIcSt11char_traitsIcEERSt13basic_ostreamIT_T0_ES6_PKS3_l
.Ltmp187:
	.loc	4 185 52                # ./new2.cpp:185:52
	movl	8(%r15), %esi
	.loc	4 185 49 is_stmt 0      # ./new2.cpp:185:49
	movq	%rbx, %rdi
	callq	_ZNSolsEi
	movb	$10, 15(%rsp)
.Ltmp188:
	#DEBUG_VALUE: operator<<<std::char_traits<char> >:__c <- 10
	#DEBUG_VALUE: operator<<<std::char_traits<char> >:__out <- $rax
	.loc	4 0 49                  # ./new2.cpp:0:49
	leaq	15(%rsp), %rsi
.Ltmp189:
	#DEBUG_VALUE: operator<<<std::char_traits<char> >:__c <- [DW_OP_plus_uconst 15] [$rsp+0]
	.loc	67 509 14 is_stmt 1     # /usr/bin/../lib64/gcc/x86_64-pc-linux-gnu/8.0.0/../../../../include/c++/8.0.0/ostream:509:14
	movl	$1, %edx
	movq	%rax, %rdi
	callq	_ZSt16__ostream_insertIcSt11char_traitsIcEERSt13basic_ostreamIT_T0_ES6_PKS3_l
.Ltmp190:
	.loc	67 0 14 is_stmt 0       # /usr/bin/../lib64/gcc/x86_64-pc-linux-gnu/8.0.0/../../../../include/c++/8.0.0/ostream:0:14
	movq	24(%r14), %rax
.Ltmp191:
	#DEBUG_VALUE: _M_head:__b <- [DW_OP_plus_uconst 44, DW_OP_plus_uconst 4, DW_OP_stack_value] $rax
	#DEBUG_VALUE: _M_head:__t <- [DW_OP_plus_uconst 44, DW_OP_stack_value] $rax
	#DEBUG_VALUE: __get_helper<0, int, int>:__t <- [DW_OP_plus_uconst 44, DW_OP_stack_value] $rax
	#DEBUG_VALUE: get<0, int, int>:__t <- [DW_OP_plus_uconst 44, DW_OP_stack_value] $rax
	.loc	4 109 42 is_stmt 1      # ./new2.cpp:109:42
	movl	$-1, 48(%rax)
.Ltmp192:
	#DEBUG_VALUE: fetch_sub:__m <- 5
	#DEBUG_VALUE: fetch_sub:__i <- 1
	#DEBUG_VALUE: fetch_sub:this <- [DW_OP_plus_uconst 36, DW_OP_stack_value] $rax
	.loc	13 524 16               # /usr/bin/../lib64/gcc/x86_64-pc-linux-gnu/8.0.0/../../../../include/c++/8.0.0/bits/atomic_base.h:524:16
	lock		subl	$1, 36(%rax)
.Ltmp193:
.LBB4_2:
	#DEBUG_VALUE: _M_run:this <- $r14
	.loc	60 186 24               # /usr/bin/../lib64/gcc/x86_64-pc-linux-gnu/8.0.0/../../../../include/c++/8.0.0/thread:186:24
	addq	$16, %rsp
	popq	%rbx
	popq	%r14
.Ltmp194:
	popq	%r15
	retq
.Ltmp195:
.Lfunc_end4:
	.size	_ZNSt6thread11_State_implINS_8_InvokerISt5tupleIJZZN8node_andIJ8node_seqI4leafIiZ4mainE3$_0ES5_IiZ4mainE3$_1EES4_IS5_IiZ4mainE3$_2ES5_IiZ4mainE3$_3EES4_IS5_IiZ4mainE3$_4ES5_IiZ4mainE3$_5EEEE7executeI1SRiZNS4_ISL_S5_IS2_IJiiiEEZ4mainE4$_10EE7executeISN_SO_ZZZNS3_IJSS_S4_IS3_IJS4_IS5_IiZ4mainE3$_6ES5_IiZ4mainE3$_7EES4_IS5_IiZ4mainE3$_8ES5_IiZ4mainE3$_9EEEES5_IS2_IJiiEEZ4mainE4$_11EEEE7executeISN_iZ4mainE4$_12EEvRT_OT0_OT1_ENKUlS1C_RS1E_E_clISt17integral_constantImLm0EESS_EEDaS1C_S1I_ENKUlvE_clEvEUlOS1C_E_EEvS1D_S1F_S1H_EUlS1P_E_EEvS1D_S1F_S1H_ENKUlS1C_S1I_E_clIS1M_SA_EES1N_S1C_S1I_EUlvE_EEEEE6_M_runEv, .Lfunc_end4-_ZNSt6thread11_State_implINS_8_InvokerISt5tupleIJZZN8node_andIJ8node_seqI4leafIiZ4mainE3$_0ES5_IiZ4mainE3$_1EES4_IS5_IiZ4mainE3$_2ES5_IiZ4mainE3$_3EES4_IS5_IiZ4mainE3$_4ES5_IiZ4mainE3$_5EEEE7executeI1SRiZNS4_ISL_S5_IS2_IJiiiEEZ4mainE4$_10EE7executeISN_SO_ZZZNS3_IJSS_S4_IS3_IJS4_IS5_IiZ4mainE3$_6ES5_IiZ4mainE3$_7EES4_IS5_IiZ4mainE3$_8ES5_IiZ4mainE3$_9EEEES5_IS2_IJiiEEZ4mainE4$_11EEEE7executeISN_iZ4mainE4$_12EEvRT_OT0_OT1_ENKUlS1C_RS1E_E_clISt17integral_constantImLm0EESS_EEDaS1C_S1I_ENKUlvE_clEvEUlOS1C_E_EEvS1D_S1F_S1H_EUlS1P_E_EEvS1D_S1F_S1H_ENKUlS1C_S1I_E_clIS1M_SA_EES1N_S1C_S1I_EUlvE_EEEEE6_M_runEv
	.cfi_endproc
	.file	68 "/usr/bin/../lib64/gcc/x86_64-pc-linux-gnu/8.0.0/../../../../include/c++/8.0.0/bits" "char_traits.h"
                                        # -- End function
	.p2align	4, 0x90         # -- Begin function _ZNSt6thread11_State_implINS_8_InvokerISt5tupleIJZZN8node_andIJ8node_seqI4leafIiZ4mainE3$_0ES5_IiZ4mainE3$_1EES4_IS5_IiZ4mainE3$_2ES5_IiZ4mainE3$_3EES4_IS5_IiZ4mainE3$_4ES5_IiZ4mainE3$_5EEEE7executeI1SRiZNS4_ISL_S5_IS2_IJiiiEEZ4mainE4$_10EE7executeISN_SO_ZZZNS3_IJSS_S4_IS3_IJS4_IS5_IiZ4mainE3$_6ES5_IiZ4mainE3$_7EES4_IS5_IiZ4mainE3$_8ES5_IiZ4mainE3$_9EEEES5_IS2_IJiiEEZ4mainE4$_11EEEE7executeISN_iZ4mainE4$_12EEvRT_OT0_OT1_ENKUlS1C_RS1E_E_clISt17integral_constantImLm0EESS_EEDaS1C_S1I_ENKUlvE_clEvEUlOS1C_E_EEvS1D_S1F_S1H_EUlS1P_E_EEvS1D_S1F_S1H_ENKUlS1C_S1I_E_clIS1L_ImLm1EESF_EES1N_S1C_S1I_EUlvE_EEEEED0Ev
	.type	_ZNSt6thread11_State_implINS_8_InvokerISt5tupleIJZZN8node_andIJ8node_seqI4leafIiZ4mainE3$_0ES5_IiZ4mainE3$_1EES4_IS5_IiZ4mainE3$_2ES5_IiZ4mainE3$_3EES4_IS5_IiZ4mainE3$_4ES5_IiZ4mainE3$_5EEEE7executeI1SRiZNS4_ISL_S5_IS2_IJiiiEEZ4mainE4$_10EE7executeISN_SO_ZZZNS3_IJSS_S4_IS3_IJS4_IS5_IiZ4mainE3$_6ES5_IiZ4mainE3$_7EES4_IS5_IiZ4mainE3$_8ES5_IiZ4mainE3$_9EEEES5_IS2_IJiiEEZ4mainE4$_11EEEE7executeISN_iZ4mainE4$_12EEvRT_OT0_OT1_ENKUlS1C_RS1E_E_clISt17integral_constantImLm0EESS_EEDaS1C_S1I_ENKUlvE_clEvEUlOS1C_E_EEvS1D_S1F_S1H_EUlS1P_E_EEvS1D_S1F_S1H_ENKUlS1C_S1I_E_clIS1L_ImLm1EESF_EES1N_S1C_S1I_EUlvE_EEEEED0Ev,@function
_ZNSt6thread11_State_implINS_8_InvokerISt5tupleIJZZN8node_andIJ8node_seqI4leafIiZ4mainE3$_0ES5_IiZ4mainE3$_1EES4_IS5_IiZ4mainE3$_2ES5_IiZ4mainE3$_3EES4_IS5_IiZ4mainE3$_4ES5_IiZ4mainE3$_5EEEE7executeI1SRiZNS4_ISL_S5_IS2_IJiiiEEZ4mainE4$_10EE7executeISN_SO_ZZZNS3_IJSS_S4_IS3_IJS4_IS5_IiZ4mainE3$_6ES5_IiZ4mainE3$_7EES4_IS5_IiZ4mainE3$_8ES5_IiZ4mainE3$_9EEEES5_IS2_IJiiEEZ4mainE4$_11EEEE7executeISN_iZ4mainE4$_12EEvRT_OT0_OT1_ENKUlS1C_RS1E_E_clISt17integral_constantImLm0EESS_EEDaS1C_S1I_ENKUlvE_clEvEUlOS1C_E_EEvS1D_S1F_S1H_EUlS1P_E_EEvS1D_S1F_S1H_ENKUlS1C_S1I_E_clIS1L_ImLm1EESF_EES1N_S1C_S1I_EUlvE_EEEEED0Ev: # @"_ZNSt6thread11_State_implINS_8_InvokerISt5tupleIJZZN8node_andIJ8node_seqI4leafIiZ4mainE3$_0ES5_IiZ4mainE3$_1EES4_IS5_IiZ4mainE3$_2ES5_IiZ4mainE3$_3EES4_IS5_IiZ4mainE3$_4ES5_IiZ4mainE3$_5EEEE7executeI1SRiZNS4_ISL_S5_IS2_IJiiiEEZ4mainE4$_10EE7executeISN_SO_ZZZNS3_IJSS_S4_IS3_IJS4_IS5_IiZ4mainE3$_6ES5_IiZ4mainE3$_7EES4_IS5_IiZ4mainE3$_8ES5_IiZ4mainE3$_9EEEES5_IS2_IJiiEEZ4mainE4$_11EEEE7executeISN_iZ4mainE4$_12EEvRT_OT0_OT1_ENKUlS1C_RS1E_E_clISt17integral_constantImLm0EESS_EEDaS1C_S1I_ENKUlvE_clEvEUlOS1C_E_EEvS1D_S1F_S1H_EUlS1P_E_EEvS1D_S1F_S1H_ENKUlS1C_S1I_E_clIS1L_ImLm1EESF_EES1N_S1C_S1I_EUlvE_EEEEED0Ev"
.Lfunc_begin5:
	.loc	60 178 0                # /usr/bin/../lib64/gcc/x86_64-pc-linux-gnu/8.0.0/../../../../include/c++/8.0.0/thread:178:0
	.cfi_startproc
# %bb.0:
	pushq	%rbx
	.cfi_def_cfa_offset 16
	.cfi_offset %rbx, -16
	#DEBUG_VALUE: ~_State_impl:this <- $rdi
	movq	%rdi, %rbx
.Ltmp196:
	#DEBUG_VALUE: ~_State_impl:this <- $rbx
	.loc	60 178 14 prologue_end  # /usr/bin/../lib64/gcc/x86_64-pc-linux-gnu/8.0.0/../../../../include/c++/8.0.0/thread:178:14
	callq	_ZNSt6thread6_StateD2Ev
	movq	%rbx, %rdi
	popq	%rbx
.Ltmp197:
	jmp	_ZdlPv                  # TAILCALL
.Ltmp198:
.Lfunc_end5:
	.size	_ZNSt6thread11_State_implINS_8_InvokerISt5tupleIJZZN8node_andIJ8node_seqI4leafIiZ4mainE3$_0ES5_IiZ4mainE3$_1EES4_IS5_IiZ4mainE3$_2ES5_IiZ4mainE3$_3EES4_IS5_IiZ4mainE3$_4ES5_IiZ4mainE3$_5EEEE7executeI1SRiZNS4_ISL_S5_IS2_IJiiiEEZ4mainE4$_10EE7executeISN_SO_ZZZNS3_IJSS_S4_IS3_IJS4_IS5_IiZ4mainE3$_6ES5_IiZ4mainE3$_7EES4_IS5_IiZ4mainE3$_8ES5_IiZ4mainE3$_9EEEES5_IS2_IJiiEEZ4mainE4$_11EEEE7executeISN_iZ4mainE4$_12EEvRT_OT0_OT1_ENKUlS1C_RS1E_E_clISt17integral_constantImLm0EESS_EEDaS1C_S1I_ENKUlvE_clEvEUlOS1C_E_EEvS1D_S1F_S1H_EUlS1P_E_EEvS1D_S1F_S1H_ENKUlS1C_S1I_E_clIS1L_ImLm1EESF_EES1N_S1C_S1I_EUlvE_EEEEED0Ev, .Lfunc_end5-_ZNSt6thread11_State_implINS_8_InvokerISt5tupleIJZZN8node_andIJ8node_seqI4leafIiZ4mainE3$_0ES5_IiZ4mainE3$_1EES4_IS5_IiZ4mainE3$_2ES5_IiZ4mainE3$_3EES4_IS5_IiZ4mainE3$_4ES5_IiZ4mainE3$_5EEEE7executeI1SRiZNS4_ISL_S5_IS2_IJiiiEEZ4mainE4$_10EE7executeISN_SO_ZZZNS3_IJSS_S4_IS3_IJS4_IS5_IiZ4mainE3$_6ES5_IiZ4mainE3$_7EES4_IS5_IiZ4mainE3$_8ES5_IiZ4mainE3$_9EEEES5_IS2_IJiiEEZ4mainE4$_11EEEE7executeISN_iZ4mainE4$_12EEvRT_OT0_OT1_ENKUlS1C_RS1E_E_clISt17integral_constantImLm0EESS_EEDaS1C_S1I_ENKUlvE_clEvEUlOS1C_E_EEvS1D_S1F_S1H_EUlS1P_E_EEvS1D_S1F_S1H_ENKUlS1C_S1I_E_clIS1L_ImLm1EESF_EES1N_S1C_S1I_EUlvE_EEEEED0Ev
	.cfi_endproc
                                        # -- End function
	.p2align	4, 0x90         # -- Begin function _ZNSt6thread11_State_implINS_8_InvokerISt5tupleIJZZN8node_andIJ8node_seqI4leafIiZ4mainE3$_0ES5_IiZ4mainE3$_1EES4_IS5_IiZ4mainE3$_2ES5_IiZ4mainE3$_3EES4_IS5_IiZ4mainE3$_4ES5_IiZ4mainE3$_5EEEE7executeI1SRiZNS4_ISL_S5_IS2_IJiiiEEZ4mainE4$_10EE7executeISN_SO_ZZZNS3_IJSS_S4_IS3_IJS4_IS5_IiZ4mainE3$_6ES5_IiZ4mainE3$_7EES4_IS5_IiZ4mainE3$_8ES5_IiZ4mainE3$_9EEEES5_IS2_IJiiEEZ4mainE4$_11EEEE7executeISN_iZ4mainE4$_12EEvRT_OT0_OT1_ENKUlS1C_RS1E_E_clISt17integral_constantImLm0EESS_EEDaS1C_S1I_ENKUlvE_clEvEUlOS1C_E_EEvS1D_S1F_S1H_EUlS1P_E_EEvS1D_S1F_S1H_ENKUlS1C_S1I_E_clIS1L_ImLm1EESF_EES1N_S1C_S1I_EUlvE_EEEEE6_M_runEv
	.type	_ZNSt6thread11_State_implINS_8_InvokerISt5tupleIJZZN8node_andIJ8node_seqI4leafIiZ4mainE3$_0ES5_IiZ4mainE3$_1EES4_IS5_IiZ4mainE3$_2ES5_IiZ4mainE3$_3EES4_IS5_IiZ4mainE3$_4ES5_IiZ4mainE3$_5EEEE7executeI1SRiZNS4_ISL_S5_IS2_IJiiiEEZ4mainE4$_10EE7executeISN_SO_ZZZNS3_IJSS_S4_IS3_IJS4_IS5_IiZ4mainE3$_6ES5_IiZ4mainE3$_7EES4_IS5_IiZ4mainE3$_8ES5_IiZ4mainE3$_9EEEES5_IS2_IJiiEEZ4mainE4$_11EEEE7executeISN_iZ4mainE4$_12EEvRT_OT0_OT1_ENKUlS1C_RS1E_E_clISt17integral_constantImLm0EESS_EEDaS1C_S1I_ENKUlvE_clEvEUlOS1C_E_EEvS1D_S1F_S1H_EUlS1P_E_EEvS1D_S1F_S1H_ENKUlS1C_S1I_E_clIS1L_ImLm1EESF_EES1N_S1C_S1I_EUlvE_EEEEE6_M_runEv,@function
_ZNSt6thread11_State_implINS_8_InvokerISt5tupleIJZZN8node_andIJ8node_seqI4leafIiZ4mainE3$_0ES5_IiZ4mainE3$_1EES4_IS5_IiZ4mainE3$_2ES5_IiZ4mainE3$_3EES4_IS5_IiZ4mainE3$_4ES5_IiZ4mainE3$_5EEEE7executeI1SRiZNS4_ISL_S5_IS2_IJiiiEEZ4mainE4$_10EE7executeISN_SO_ZZZNS3_IJSS_S4_IS3_IJS4_IS5_IiZ4mainE3$_6ES5_IiZ4mainE3$_7EES4_IS5_IiZ4mainE3$_8ES5_IiZ4mainE3$_9EEEES5_IS2_IJiiEEZ4mainE4$_11EEEE7executeISN_iZ4mainE4$_12EEvRT_OT0_OT1_ENKUlS1C_RS1E_E_clISt17integral_constantImLm0EESS_EEDaS1C_S1I_ENKUlvE_clEvEUlOS1C_E_EEvS1D_S1F_S1H_EUlS1P_E_EEvS1D_S1F_S1H_ENKUlS1C_S1I_E_clIS1L_ImLm1EESF_EES1N_S1C_S1I_EUlvE_EEEEE6_M_runEv: # @"_ZNSt6thread11_State_implINS_8_InvokerISt5tupleIJZZN8node_andIJ8node_seqI4leafIiZ4mainE3$_0ES5_IiZ4mainE3$_1EES4_IS5_IiZ4mainE3$_2ES5_IiZ4mainE3$_3EES4_IS5_IiZ4mainE3$_4ES5_IiZ4mainE3$_5EEEE7executeI1SRiZNS4_ISL_S5_IS2_IJiiiEEZ4mainE4$_10EE7executeISN_SO_ZZZNS3_IJSS_S4_IS3_IJS4_IS5_IiZ4mainE3$_6ES5_IiZ4mainE3$_7EES4_IS5_IiZ4mainE3$_8ES5_IiZ4mainE3$_9EEEES5_IS2_IJiiEEZ4mainE4$_11EEEE7executeISN_iZ4mainE4$_12EEvRT_OT0_OT1_ENKUlS1C_RS1E_E_clISt17integral_constantImLm0EESS_EEDaS1C_S1I_ENKUlvE_clEvEUlOS1C_E_EEvS1D_S1F_S1H_EUlS1P_E_EEvS1D_S1F_S1H_ENKUlS1C_S1I_E_clIS1L_ImLm1EESF_EES1N_S1C_S1I_EUlvE_EEEEE6_M_runEv"
.Lfunc_begin6:
	.loc	60 186 0                # /usr/bin/../lib64/gcc/x86_64-pc-linux-gnu/8.0.0/../../../../include/c++/8.0.0/thread:186:0
	.cfi_startproc
# %bb.0:
	pushq	%r15
	.cfi_def_cfa_offset 16
	pushq	%r14
	.cfi_def_cfa_offset 24
	pushq	%rbx
	.cfi_def_cfa_offset 32
	subq	$16, %rsp
	.cfi_def_cfa_offset 48
	.cfi_offset %rbx, -32
	.cfi_offset %r14, -24
	.cfi_offset %r15, -16
	#DEBUG_VALUE: _M_run:this <- $rdi
.Ltmp199:
	#DEBUG_VALUE: operator():this <- [DW_OP_plus_uconst 8, DW_OP_stack_value] $rdi
	#DEBUG_VALUE: _M_invoke<0>:this <- [DW_OP_plus_uconst 8, DW_OP_stack_value] $rdi
	#DEBUG_VALUE: __invoke<(lambda at ./new2.cpp:107:23)>:__fn <- [DW_OP_plus_uconst 8, DW_OP_stack_value] $rdi
	#DEBUG_VALUE: __invoke_impl<void, (lambda at ./new2.cpp:107:23)>:__f <- [DW_OP_plus_uconst 8, DW_OP_stack_value] $rdi
	#DEBUG_VALUE: operator():this <- [DW_OP_plus_uconst 8, DW_OP_stack_value] $rdi
	#DEBUG_VALUE: execute<S, int &, (lambda at ./new2.cpp:108:59)>:this <- [DW_OP_plus_uconst 8, DW_OP_plus_uconst 48, DW_OP_deref, DW_OP_stack_value] $rdi
	#DEBUG_VALUE: execute<S, int &, (lambda at ./new2.cpp:108:59)>:scheduler <- [DW_OP_plus_uconst 8, DW_OP_plus_uconst 56, DW_OP_deref, DW_OP_stack_value] $rdi
	#DEBUG_VALUE: execute<S, std::tuple<int, int, int> &, const (lambda at ./new2.cpp:108:59) &>:then <- [DW_OP_plus_uconst 8, DW_OP_plus_uconst 16, DW_OP_stack_value] $rdi
	movq	%rdi, %r14
.Ltmp200:
	#DEBUG_VALUE: execute<S, std::tuple<int, int, int> &, const (lambda at ./new2.cpp:108:59) &>:then <- [DW_OP_plus_uconst 8, DW_OP_plus_uconst 16, DW_OP_stack_value] $r14
	movq	48(%rdi), %r15
.Ltmp201:
	#DEBUG_VALUE: operator(): <- 0
	#DEBUG_VALUE: get<1, int, int, int>:__t <- [DW_OP_plus_uconst 8, DW_OP_stack_value] $r15
	#DEBUG_VALUE: __get_helper<1, int, int>:__t <- [DW_OP_plus_uconst 8, DW_OP_stack_value] $r15
	#DEBUG_VALUE: _M_head:__t <- [DW_OP_plus_uconst 8, DW_OP_stack_value] $r15
	#DEBUG_VALUE: _M_head:__b <- [DW_OP_plus_uconst 8, DW_OP_plus_uconst 4, DW_OP_stack_value] $r15
	#DEBUG_VALUE: operator()<std::tuple<int, int, int> &>:out <- [DW_OP_plus_uconst 8, DW_OP_stack_value] $r15
	#DEBUG_VALUE: execute<S, std::tuple<int, int, int> &, const (lambda at ./new2.cpp:108:59) &>:input <- [DW_OP_plus_uconst 8, DW_OP_stack_value] $r15
	#DEBUG_VALUE: operator()<std::tuple<int, int, int> >:t <- [DW_OP_plus_uconst 8, DW_OP_stack_value] $r15
	#DEBUG_VALUE: get<0, int, int, int>:__t <- [DW_OP_plus_uconst 8, DW_OP_stack_value] $r15
	#DEBUG_VALUE: __get_helper<0, int, int, int>:__t <- [DW_OP_plus_uconst 8, DW_OP_stack_value] $r15
	#DEBUG_VALUE: _M_head:__t <- [DW_OP_plus_uconst 8, DW_OP_stack_value] $r15
	#DEBUG_VALUE: _M_head:__b <- [DW_OP_plus_uconst 8, DW_OP_plus_uconst 8, DW_OP_stack_value] $r15
	#DEBUG_VALUE: get<2, int, int, int>:__t <- [DW_OP_plus_uconst 8, DW_OP_stack_value] $r15
	#DEBUG_VALUE: __get_helper<2, int>:__t <- [DW_OP_plus_uconst 8, DW_OP_stack_value] $r15
	#DEBUG_VALUE: _M_head:__t <- [DW_OP_plus_uconst 8, DW_OP_stack_value] $r15
	#DEBUG_VALUE: _M_head:__b <- [DW_OP_plus_uconst 8, DW_OP_stack_value] $r15
	#DEBUG_VALUE: execute<S, int &, (lambda at ./new2.cpp:108:59)>:scheduler <- [DW_OP_plus_uconst 8, DW_OP_plus_uconst 56, DW_OP_deref, DW_OP_stack_value] $r14
	#DEBUG_VALUE: execute<S, int &, (lambda at ./new2.cpp:108:59)>:this <- [DW_OP_plus_uconst 8, DW_OP_plus_uconst 48, DW_OP_deref, DW_OP_stack_value] $r14
	#DEBUG_VALUE: operator():this <- [DW_OP_plus_uconst 8, DW_OP_stack_value] $r14
	#DEBUG_VALUE: __invoke_impl<void, (lambda at ./new2.cpp:107:23)>:__f <- [DW_OP_plus_uconst 8, DW_OP_stack_value] $r14
	#DEBUG_VALUE: __invoke<(lambda at ./new2.cpp:107:23)>:__fn <- [DW_OP_plus_uconst 8, DW_OP_stack_value] $r14
	#DEBUG_VALUE: _M_invoke<0>:this <- [DW_OP_plus_uconst 8, DW_OP_stack_value] $r14
	#DEBUG_VALUE: operator():this <- [DW_OP_plus_uconst 8, DW_OP_stack_value] $r14
	#DEBUG_VALUE: _M_run:this <- $r14
	.loc	67 561 2 prologue_end   # /usr/bin/../lib64/gcc/x86_64-pc-linux-gnu/8.0.0/../../../../include/c++/8.0.0/ostream:561:2
	movl	$_ZSt4cout, %edi
	movl	$.L.str.5, %esi
.Ltmp202:
	#DEBUG_VALUE: operator<<<std::char_traits<char> >:__s <- $rsi
	movl	$3, %edx
	callq	_ZSt16__ostream_insertIcSt11char_traitsIcEERSt13basic_ostreamIT_T0_ES6_PKS3_l
.Ltmp203:
	#DEBUG_VALUE: operator():x <- 2
	#DEBUG_VALUE: operator<<<std::char_traits<char> >:__out <- undef
	.loc	67 561 2 is_stmt 0      # /usr/bin/../lib64/gcc/x86_64-pc-linux-gnu/8.0.0/../../../../include/c++/8.0.0/ostream:561:2
	movl	$_ZSt4cout, %edi
	movl	$.L.str.1, %esi
.Ltmp204:
	#DEBUG_VALUE: operator<<<std::char_traits<char> >:__s <- $rsi
	movl	$1, %edx
	callq	_ZSt16__ostream_insertIcSt11char_traitsIcEERSt13basic_ostreamIT_T0_ES6_PKS3_l
.Ltmp205:
	.loc	4 158 39 is_stmt 1      # ./new2.cpp:158:39
	movl	$_ZSt4cout, %edi
.Ltmp206:
	#DEBUG_VALUE: operator<<<std::char_traits<char> >:__out <- $rdi
	movl	$2, %esi
	callq	_ZNSolsEi
.Ltmp207:
	#DEBUG_VALUE: operator<<<std::char_traits<char> >:__out <- $rax
	.loc	67 561 2                # /usr/bin/../lib64/gcc/x86_64-pc-linux-gnu/8.0.0/../../../../include/c++/8.0.0/ostream:561:2
	movl	$.L.str.4, %esi
.Ltmp208:
	#DEBUG_VALUE: operator<<<std::char_traits<char> >:__s <- $rsi
	movl	$5, %edx
	movq	%rax, %rdi
	callq	_ZSt16__ostream_insertIcSt11char_traitsIcEERSt13basic_ostreamIT_T0_ES6_PKS3_l
.Ltmp209:
	.loc	4 109 42                # ./new2.cpp:109:42
	movl	$3, 12(%r15)
.Ltmp210:
	#DEBUG_VALUE: fetch_sub:__m <- 5
	#DEBUG_VALUE: fetch_sub:__i <- 1
	#DEBUG_VALUE: fetch_sub:this <- [DW_OP_stack_value] $r15
	.loc	13 524 16               # /usr/bin/../lib64/gcc/x86_64-pc-linux-gnu/8.0.0/../../../../include/c++/8.0.0/bits/atomic_base.h:524:16
	lock		subl	$1, (%r15)
.Ltmp211:
	.loc	4 111 24                # ./new2.cpp:111:24
	jne	.LBB6_2
.Ltmp212:
# %bb.1:
	#DEBUG_VALUE: _M_run:this <- $r14
	#DEBUG_VALUE: operator():this <- [DW_OP_plus_uconst 8, DW_OP_stack_value] $r14
	#DEBUG_VALUE: _M_invoke<0>:this <- [DW_OP_plus_uconst 8, DW_OP_stack_value] $r14
	#DEBUG_VALUE: __invoke<(lambda at ./new2.cpp:107:23)>:__fn <- [DW_OP_plus_uconst 8, DW_OP_stack_value] $r14
	#DEBUG_VALUE: __invoke_impl<void, (lambda at ./new2.cpp:107:23)>:__f <- [DW_OP_plus_uconst 8, DW_OP_stack_value] $r14
	#DEBUG_VALUE: operator():this <- [DW_OP_plus_uconst 8, DW_OP_stack_value] $r14
	#DEBUG_VALUE: execute<S, int &, (lambda at ./new2.cpp:108:59)>:this <- [DW_OP_plus_uconst 8, DW_OP_plus_uconst 48, DW_OP_deref, DW_OP_stack_value] $r14
	#DEBUG_VALUE: execute<S, int &, (lambda at ./new2.cpp:108:59)>:scheduler <- [DW_OP_plus_uconst 8, DW_OP_plus_uconst 56, DW_OP_deref, DW_OP_stack_value] $r14
	#DEBUG_VALUE: operator()<std::tuple<int, int, int> >:t <- [DW_OP_plus_uconst 8, DW_OP_stack_value] $r15
	#DEBUG_VALUE: execute<S, std::tuple<int, int, int> &, const (lambda at ./new2.cpp:108:59) &>:input <- [DW_OP_plus_uconst 8, DW_OP_stack_value] $r15
	#DEBUG_VALUE: operator()<std::tuple<int, int, int> &>:out <- [DW_OP_plus_uconst 8, DW_OP_stack_value] $r15
	#DEBUG_VALUE: execute<S, std::tuple<int, int, int> &, const (lambda at ./new2.cpp:108:59) &>:then <- [DW_OP_plus_uconst 8, DW_OP_plus_uconst 16, DW_OP_stack_value] $r14
	.loc	4 183 52                # ./new2.cpp:183:52
	movl	16(%r15), %esi
	.loc	4 183 49 is_stmt 0      # ./new2.cpp:183:49
	movl	$_ZSt4cout, %edi
	callq	_ZNSolsEi
	movq	%rax, %rbx
.Ltmp213:
	#DEBUG_VALUE: operator<<<std::char_traits<char> >:__out <- $rbx
	.loc	67 561 2 is_stmt 1      # /usr/bin/../lib64/gcc/x86_64-pc-linux-gnu/8.0.0/../../../../include/c++/8.0.0/ostream:561:2
	movl	$.L.str, %esi
	movl	$2, %edx
	movq	%rax, %rdi
	callq	_ZSt16__ostream_insertIcSt11char_traitsIcEERSt13basic_ostreamIT_T0_ES6_PKS3_l
.Ltmp214:
	.loc	4 184 52                # ./new2.cpp:184:52
	movl	12(%r15), %esi
	.loc	4 184 49 is_stmt 0      # ./new2.cpp:184:49
	movq	%rbx, %rdi
	callq	_ZNSolsEi
	movq	%rax, %rbx
.Ltmp215:
	#DEBUG_VALUE: operator<<<std::char_traits<char> >:__out <- $rbx
	#DEBUG_VALUE: operator<<<std::char_traits<char> >:__s <- undef
	.loc	67 561 2 is_stmt 1      # /usr/bin/../lib64/gcc/x86_64-pc-linux-gnu/8.0.0/../../../../include/c++/8.0.0/ostream:561:2
	movl	$.L.str, %esi
.Ltmp216:
	#DEBUG_VALUE: operator<<<std::char_traits<char> >:__s <- $rsi
	movl	$2, %edx
	movq	%rax, %rdi
	callq	_ZSt16__ostream_insertIcSt11char_traitsIcEERSt13basic_ostreamIT_T0_ES6_PKS3_l
.Ltmp217:
	.loc	4 185 52                # ./new2.cpp:185:52
	movl	8(%r15), %esi
	.loc	4 185 49 is_stmt 0      # ./new2.cpp:185:49
	movq	%rbx, %rdi
	callq	_ZNSolsEi
	movb	$10, 15(%rsp)
.Ltmp218:
	#DEBUG_VALUE: operator<<<std::char_traits<char> >:__c <- 10
	#DEBUG_VALUE: operator<<<std::char_traits<char> >:__out <- $rax
	.loc	4 0 49                  # ./new2.cpp:0:49
	leaq	15(%rsp), %rsi
.Ltmp219:
	#DEBUG_VALUE: operator<<<std::char_traits<char> >:__c <- [DW_OP_plus_uconst 15] [$rsp+0]
	.loc	67 509 14 is_stmt 1     # /usr/bin/../lib64/gcc/x86_64-pc-linux-gnu/8.0.0/../../../../include/c++/8.0.0/ostream:509:14
	movl	$1, %edx
	movq	%rax, %rdi
	callq	_ZSt16__ostream_insertIcSt11char_traitsIcEERSt13basic_ostreamIT_T0_ES6_PKS3_l
.Ltmp220:
	.loc	67 0 14 is_stmt 0       # /usr/bin/../lib64/gcc/x86_64-pc-linux-gnu/8.0.0/../../../../include/c++/8.0.0/ostream:0:14
	movq	24(%r14), %rax
.Ltmp221:
	#DEBUG_VALUE: _M_head:__b <- [DW_OP_plus_uconst 44, DW_OP_plus_uconst 4, DW_OP_stack_value] $rax
	#DEBUG_VALUE: _M_head:__t <- [DW_OP_plus_uconst 44, DW_OP_stack_value] $rax
	#DEBUG_VALUE: __get_helper<0, int, int>:__t <- [DW_OP_plus_uconst 44, DW_OP_stack_value] $rax
	#DEBUG_VALUE: get<0, int, int>:__t <- [DW_OP_plus_uconst 44, DW_OP_stack_value] $rax
	.loc	4 109 42 is_stmt 1      # ./new2.cpp:109:42
	movl	$-1, 48(%rax)
.Ltmp222:
	#DEBUG_VALUE: fetch_sub:__m <- 5
	#DEBUG_VALUE: fetch_sub:__i <- 1
	#DEBUG_VALUE: fetch_sub:this <- [DW_OP_plus_uconst 36, DW_OP_stack_value] $rax
	.loc	13 524 16               # /usr/bin/../lib64/gcc/x86_64-pc-linux-gnu/8.0.0/../../../../include/c++/8.0.0/bits/atomic_base.h:524:16
	lock		subl	$1, 36(%rax)
.Ltmp223:
.LBB6_2:
	#DEBUG_VALUE: _M_run:this <- $r14
	.loc	60 186 24               # /usr/bin/../lib64/gcc/x86_64-pc-linux-gnu/8.0.0/../../../../include/c++/8.0.0/thread:186:24
	addq	$16, %rsp
	popq	%rbx
	popq	%r14
.Ltmp224:
	popq	%r15
	retq
.Ltmp225:
.Lfunc_end6:
	.size	_ZNSt6thread11_State_implINS_8_InvokerISt5tupleIJZZN8node_andIJ8node_seqI4leafIiZ4mainE3$_0ES5_IiZ4mainE3$_1EES4_IS5_IiZ4mainE3$_2ES5_IiZ4mainE3$_3EES4_IS5_IiZ4mainE3$_4ES5_IiZ4mainE3$_5EEEE7executeI1SRiZNS4_ISL_S5_IS2_IJiiiEEZ4mainE4$_10EE7executeISN_SO_ZZZNS3_IJSS_S4_IS3_IJS4_IS5_IiZ4mainE3$_6ES5_IiZ4mainE3$_7EES4_IS5_IiZ4mainE3$_8ES5_IiZ4mainE3$_9EEEES5_IS2_IJiiEEZ4mainE4$_11EEEE7executeISN_iZ4mainE4$_12EEvRT_OT0_OT1_ENKUlS1C_RS1E_E_clISt17integral_constantImLm0EESS_EEDaS1C_S1I_ENKUlvE_clEvEUlOS1C_E_EEvS1D_S1F_S1H_EUlS1P_E_EEvS1D_S1F_S1H_ENKUlS1C_S1I_E_clIS1L_ImLm1EESF_EES1N_S1C_S1I_EUlvE_EEEEE6_M_runEv, .Lfunc_end6-_ZNSt6thread11_State_implINS_8_InvokerISt5tupleIJZZN8node_andIJ8node_seqI4leafIiZ4mainE3$_0ES5_IiZ4mainE3$_1EES4_IS5_IiZ4mainE3$_2ES5_IiZ4mainE3$_3EES4_IS5_IiZ4mainE3$_4ES5_IiZ4mainE3$_5EEEE7executeI1SRiZNS4_ISL_S5_IS2_IJiiiEEZ4mainE4$_10EE7executeISN_SO_ZZZNS3_IJSS_S4_IS3_IJS4_IS5_IiZ4mainE3$_6ES5_IiZ4mainE3$_7EES4_IS5_IiZ4mainE3$_8ES5_IiZ4mainE3$_9EEEES5_IS2_IJiiEEZ4mainE4$_11EEEE7executeISN_iZ4mainE4$_12EEvRT_OT0_OT1_ENKUlS1C_RS1E_E_clISt17integral_constantImLm0EESS_EEDaS1C_S1I_ENKUlvE_clEvEUlOS1C_E_EEvS1D_S1F_S1H_EUlS1P_E_EEvS1D_S1F_S1H_ENKUlS1C_S1I_E_clIS1L_ImLm1EESF_EES1N_S1C_S1I_EUlvE_EEEEE6_M_runEv
	.cfi_endproc
                                        # -- End function
	.p2align	4, 0x90         # -- Begin function _ZNSt6thread11_State_implINS_8_InvokerISt5tupleIJZZN8node_andIJ8node_seqI4leafIiZ4mainE3$_0ES5_IiZ4mainE3$_1EES4_IS5_IiZ4mainE3$_2ES5_IiZ4mainE3$_3EES4_IS5_IiZ4mainE3$_4ES5_IiZ4mainE3$_5EEEE7executeI1SRiZNS4_ISL_S5_IS2_IJiiiEEZ4mainE4$_10EE7executeISN_SO_ZZZNS3_IJSS_S4_IS3_IJS4_IS5_IiZ4mainE3$_6ES5_IiZ4mainE3$_7EES4_IS5_IiZ4mainE3$_8ES5_IiZ4mainE3$_9EEEES5_IS2_IJiiEEZ4mainE4$_11EEEE7executeISN_iZ4mainE4$_12EEvRT_OT0_OT1_ENKUlS1C_RS1E_E_clISt17integral_constantImLm0EESS_EEDaS1C_S1I_ENKUlvE_clEvEUlOS1C_E_EEvS1D_S1F_S1H_EUlS1P_E_EEvS1D_S1F_S1H_ENKUlS1C_S1I_E_clIS1L_ImLm2EESK_EES1N_S1C_S1I_EUlvE_EEEEED0Ev
	.type	_ZNSt6thread11_State_implINS_8_InvokerISt5tupleIJZZN8node_andIJ8node_seqI4leafIiZ4mainE3$_0ES5_IiZ4mainE3$_1EES4_IS5_IiZ4mainE3$_2ES5_IiZ4mainE3$_3EES4_IS5_IiZ4mainE3$_4ES5_IiZ4mainE3$_5EEEE7executeI1SRiZNS4_ISL_S5_IS2_IJiiiEEZ4mainE4$_10EE7executeISN_SO_ZZZNS3_IJSS_S4_IS3_IJS4_IS5_IiZ4mainE3$_6ES5_IiZ4mainE3$_7EES4_IS5_IiZ4mainE3$_8ES5_IiZ4mainE3$_9EEEES5_IS2_IJiiEEZ4mainE4$_11EEEE7executeISN_iZ4mainE4$_12EEvRT_OT0_OT1_ENKUlS1C_RS1E_E_clISt17integral_constantImLm0EESS_EEDaS1C_S1I_ENKUlvE_clEvEUlOS1C_E_EEvS1D_S1F_S1H_EUlS1P_E_EEvS1D_S1F_S1H_ENKUlS1C_S1I_E_clIS1L_ImLm2EESK_EES1N_S1C_S1I_EUlvE_EEEEED0Ev,@function
_ZNSt6thread11_State_implINS_8_InvokerISt5tupleIJZZN8node_andIJ8node_seqI4leafIiZ4mainE3$_0ES5_IiZ4mainE3$_1EES4_IS5_IiZ4mainE3$_2ES5_IiZ4mainE3$_3EES4_IS5_IiZ4mainE3$_4ES5_IiZ4mainE3$_5EEEE7executeI1SRiZNS4_ISL_S5_IS2_IJiiiEEZ4mainE4$_10EE7executeISN_SO_ZZZNS3_IJSS_S4_IS3_IJS4_IS5_IiZ4mainE3$_6ES5_IiZ4mainE3$_7EES4_IS5_IiZ4mainE3$_8ES5_IiZ4mainE3$_9EEEES5_IS2_IJiiEEZ4mainE4$_11EEEE7executeISN_iZ4mainE4$_12EEvRT_OT0_OT1_ENKUlS1C_RS1E_E_clISt17integral_constantImLm0EESS_EEDaS1C_S1I_ENKUlvE_clEvEUlOS1C_E_EEvS1D_S1F_S1H_EUlS1P_E_EEvS1D_S1F_S1H_ENKUlS1C_S1I_E_clIS1L_ImLm2EESK_EES1N_S1C_S1I_EUlvE_EEEEED0Ev: # @"_ZNSt6thread11_State_implINS_8_InvokerISt5tupleIJZZN8node_andIJ8node_seqI4leafIiZ4mainE3$_0ES5_IiZ4mainE3$_1EES4_IS5_IiZ4mainE3$_2ES5_IiZ4mainE3$_3EES4_IS5_IiZ4mainE3$_4ES5_IiZ4mainE3$_5EEEE7executeI1SRiZNS4_ISL_S5_IS2_IJiiiEEZ4mainE4$_10EE7executeISN_SO_ZZZNS3_IJSS_S4_IS3_IJS4_IS5_IiZ4mainE3$_6ES5_IiZ4mainE3$_7EES4_IS5_IiZ4mainE3$_8ES5_IiZ4mainE3$_9EEEES5_IS2_IJiiEEZ4mainE4$_11EEEE7executeISN_iZ4mainE4$_12EEvRT_OT0_OT1_ENKUlS1C_RS1E_E_clISt17integral_constantImLm0EESS_EEDaS1C_S1I_ENKUlvE_clEvEUlOS1C_E_EEvS1D_S1F_S1H_EUlS1P_E_EEvS1D_S1F_S1H_ENKUlS1C_S1I_E_clIS1L_ImLm2EESK_EES1N_S1C_S1I_EUlvE_EEEEED0Ev"
.Lfunc_begin7:
	.loc	60 178 0                # /usr/bin/../lib64/gcc/x86_64-pc-linux-gnu/8.0.0/../../../../include/c++/8.0.0/thread:178:0
	.cfi_startproc
# %bb.0:
	pushq	%rbx
	.cfi_def_cfa_offset 16
	.cfi_offset %rbx, -16
	#DEBUG_VALUE: ~_State_impl:this <- $rdi
	movq	%rdi, %rbx
.Ltmp226:
	#DEBUG_VALUE: ~_State_impl:this <- $rbx
	.loc	60 178 14 prologue_end  # /usr/bin/../lib64/gcc/x86_64-pc-linux-gnu/8.0.0/../../../../include/c++/8.0.0/thread:178:14
	callq	_ZNSt6thread6_StateD2Ev
	movq	%rbx, %rdi
	popq	%rbx
.Ltmp227:
	jmp	_ZdlPv                  # TAILCALL
.Ltmp228:
.Lfunc_end7:
	.size	_ZNSt6thread11_State_implINS_8_InvokerISt5tupleIJZZN8node_andIJ8node_seqI4leafIiZ4mainE3$_0ES5_IiZ4mainE3$_1EES4_IS5_IiZ4mainE3$_2ES5_IiZ4mainE3$_3EES4_IS5_IiZ4mainE3$_4ES5_IiZ4mainE3$_5EEEE7executeI1SRiZNS4_ISL_S5_IS2_IJiiiEEZ4mainE4$_10EE7executeISN_SO_ZZZNS3_IJSS_S4_IS3_IJS4_IS5_IiZ4mainE3$_6ES5_IiZ4mainE3$_7EES4_IS5_IiZ4mainE3$_8ES5_IiZ4mainE3$_9EEEES5_IS2_IJiiEEZ4mainE4$_11EEEE7executeISN_iZ4mainE4$_12EEvRT_OT0_OT1_ENKUlS1C_RS1E_E_clISt17integral_constantImLm0EESS_EEDaS1C_S1I_ENKUlvE_clEvEUlOS1C_E_EEvS1D_S1F_S1H_EUlS1P_E_EEvS1D_S1F_S1H_ENKUlS1C_S1I_E_clIS1L_ImLm2EESK_EES1N_S1C_S1I_EUlvE_EEEEED0Ev, .Lfunc_end7-_ZNSt6thread11_State_implINS_8_InvokerISt5tupleIJZZN8node_andIJ8node_seqI4leafIiZ4mainE3$_0ES5_IiZ4mainE3$_1EES4_IS5_IiZ4mainE3$_2ES5_IiZ4mainE3$_3EES4_IS5_IiZ4mainE3$_4ES5_IiZ4mainE3$_5EEEE7executeI1SRiZNS4_ISL_S5_IS2_IJiiiEEZ4mainE4$_10EE7executeISN_SO_ZZZNS3_IJSS_S4_IS3_IJS4_IS5_IiZ4mainE3$_6ES5_IiZ4mainE3$_7EES4_IS5_IiZ4mainE3$_8ES5_IiZ4mainE3$_9EEEES5_IS2_IJiiEEZ4mainE4$_11EEEE7executeISN_iZ4mainE4$_12EEvRT_OT0_OT1_ENKUlS1C_RS1E_E_clISt17integral_constantImLm0EESS_EEDaS1C_S1I_ENKUlvE_clEvEUlOS1C_E_EEvS1D_S1F_S1H_EUlS1P_E_EEvS1D_S1F_S1H_ENKUlS1C_S1I_E_clIS1L_ImLm2EESK_EES1N_S1C_S1I_EUlvE_EEEEED0Ev
	.cfi_endproc
                                        # -- End function
	.p2align	4, 0x90         # -- Begin function _ZNSt6thread11_State_implINS_8_InvokerISt5tupleIJZZN8node_andIJ8node_seqI4leafIiZ4mainE3$_0ES5_IiZ4mainE3$_1EES4_IS5_IiZ4mainE3$_2ES5_IiZ4mainE3$_3EES4_IS5_IiZ4mainE3$_4ES5_IiZ4mainE3$_5EEEE7executeI1SRiZNS4_ISL_S5_IS2_IJiiiEEZ4mainE4$_10EE7executeISN_SO_ZZZNS3_IJSS_S4_IS3_IJS4_IS5_IiZ4mainE3$_6ES5_IiZ4mainE3$_7EES4_IS5_IiZ4mainE3$_8ES5_IiZ4mainE3$_9EEEES5_IS2_IJiiEEZ4mainE4$_11EEEE7executeISN_iZ4mainE4$_12EEvRT_OT0_OT1_ENKUlS1C_RS1E_E_clISt17integral_constantImLm0EESS_EEDaS1C_S1I_ENKUlvE_clEvEUlOS1C_E_EEvS1D_S1F_S1H_EUlS1P_E_EEvS1D_S1F_S1H_ENKUlS1C_S1I_E_clIS1L_ImLm2EESK_EES1N_S1C_S1I_EUlvE_EEEEE6_M_runEv
	.type	_ZNSt6thread11_State_implINS_8_InvokerISt5tupleIJZZN8node_andIJ8node_seqI4leafIiZ4mainE3$_0ES5_IiZ4mainE3$_1EES4_IS5_IiZ4mainE3$_2ES5_IiZ4mainE3$_3EES4_IS5_IiZ4mainE3$_4ES5_IiZ4mainE3$_5EEEE7executeI1SRiZNS4_ISL_S5_IS2_IJiiiEEZ4mainE4$_10EE7executeISN_SO_ZZZNS3_IJSS_S4_IS3_IJS4_IS5_IiZ4mainE3$_6ES5_IiZ4mainE3$_7EES4_IS5_IiZ4mainE3$_8ES5_IiZ4mainE3$_9EEEES5_IS2_IJiiEEZ4mainE4$_11EEEE7executeISN_iZ4mainE4$_12EEvRT_OT0_OT1_ENKUlS1C_RS1E_E_clISt17integral_constantImLm0EESS_EEDaS1C_S1I_ENKUlvE_clEvEUlOS1C_E_EEvS1D_S1F_S1H_EUlS1P_E_EEvS1D_S1F_S1H_ENKUlS1C_S1I_E_clIS1L_ImLm2EESK_EES1N_S1C_S1I_EUlvE_EEEEE6_M_runEv,@function
_ZNSt6thread11_State_implINS_8_InvokerISt5tupleIJZZN8node_andIJ8node_seqI4leafIiZ4mainE3$_0ES5_IiZ4mainE3$_1EES4_IS5_IiZ4mainE3$_2ES5_IiZ4mainE3$_3EES4_IS5_IiZ4mainE3$_4ES5_IiZ4mainE3$_5EEEE7executeI1SRiZNS4_ISL_S5_IS2_IJiiiEEZ4mainE4$_10EE7executeISN_SO_ZZZNS3_IJSS_S4_IS3_IJS4_IS5_IiZ4mainE3$_6ES5_IiZ4mainE3$_7EES4_IS5_IiZ4mainE3$_8ES5_IiZ4mainE3$_9EEEES5_IS2_IJiiEEZ4mainE4$_11EEEE7executeISN_iZ4mainE4$_12EEvRT_OT0_OT1_ENKUlS1C_RS1E_E_clISt17integral_constantImLm0EESS_EEDaS1C_S1I_ENKUlvE_clEvEUlOS1C_E_EEvS1D_S1F_S1H_EUlS1P_E_EEvS1D_S1F_S1H_ENKUlS1C_S1I_E_clIS1L_ImLm2EESK_EES1N_S1C_S1I_EUlvE_EEEEE6_M_runEv: # @"_ZNSt6thread11_State_implINS_8_InvokerISt5tupleIJZZN8node_andIJ8node_seqI4leafIiZ4mainE3$_0ES5_IiZ4mainE3$_1EES4_IS5_IiZ4mainE3$_2ES5_IiZ4mainE3$_3EES4_IS5_IiZ4mainE3$_4ES5_IiZ4mainE3$_5EEEE7executeI1SRiZNS4_ISL_S5_IS2_IJiiiEEZ4mainE4$_10EE7executeISN_SO_ZZZNS3_IJSS_S4_IS3_IJS4_IS5_IiZ4mainE3$_6ES5_IiZ4mainE3$_7EES4_IS5_IiZ4mainE3$_8ES5_IiZ4mainE3$_9EEEES5_IS2_IJiiEEZ4mainE4$_11EEEE7executeISN_iZ4mainE4$_12EEvRT_OT0_OT1_ENKUlS1C_RS1E_E_clISt17integral_constantImLm0EESS_EEDaS1C_S1I_ENKUlvE_clEvEUlOS1C_E_EEvS1D_S1F_S1H_EUlS1P_E_EEvS1D_S1F_S1H_ENKUlS1C_S1I_E_clIS1L_ImLm2EESK_EES1N_S1C_S1I_EUlvE_EEEEE6_M_runEv"
.Lfunc_begin8:
	.loc	60 186 0                # /usr/bin/../lib64/gcc/x86_64-pc-linux-gnu/8.0.0/../../../../include/c++/8.0.0/thread:186:0
	.cfi_startproc
# %bb.0:
	pushq	%r15
	.cfi_def_cfa_offset 16
	pushq	%r14
	.cfi_def_cfa_offset 24
	pushq	%rbx
	.cfi_def_cfa_offset 32
	subq	$16, %rsp
	.cfi_def_cfa_offset 48
	.cfi_offset %rbx, -32
	.cfi_offset %r14, -24
	.cfi_offset %r15, -16
	#DEBUG_VALUE: _M_run:this <- $rdi
.Ltmp229:
	#DEBUG_VALUE: operator():this <- [DW_OP_plus_uconst 8, DW_OP_stack_value] $rdi
	#DEBUG_VALUE: _M_invoke<0>:this <- [DW_OP_plus_uconst 8, DW_OP_stack_value] $rdi
	#DEBUG_VALUE: __invoke<(lambda at ./new2.cpp:107:23)>:__fn <- [DW_OP_plus_uconst 8, DW_OP_stack_value] $rdi
	#DEBUG_VALUE: __invoke_impl<void, (lambda at ./new2.cpp:107:23)>:__f <- [DW_OP_plus_uconst 8, DW_OP_stack_value] $rdi
	#DEBUG_VALUE: operator():this <- [DW_OP_plus_uconst 8, DW_OP_stack_value] $rdi
	#DEBUG_VALUE: execute<S, int &, (lambda at ./new2.cpp:108:59)>:this <- [DW_OP_plus_uconst 8, DW_OP_plus_uconst 48, DW_OP_deref, DW_OP_stack_value] $rdi
	#DEBUG_VALUE: execute<S, int &, (lambda at ./new2.cpp:108:59)>:scheduler <- [DW_OP_plus_uconst 8, DW_OP_plus_uconst 56, DW_OP_deref, DW_OP_stack_value] $rdi
	#DEBUG_VALUE: execute<S, std::tuple<int, int, int> &, const (lambda at ./new2.cpp:108:59) &>:then <- [DW_OP_plus_uconst 8, DW_OP_plus_uconst 16, DW_OP_stack_value] $rdi
	movq	%rdi, %r14
.Ltmp230:
	#DEBUG_VALUE: execute<S, std::tuple<int, int, int> &, const (lambda at ./new2.cpp:108:59) &>:then <- [DW_OP_plus_uconst 8, DW_OP_plus_uconst 16, DW_OP_stack_value] $r14
	movq	48(%rdi), %r15
.Ltmp231:
	#DEBUG_VALUE: operator(): <- 0
	#DEBUG_VALUE: get<2, int, int, int>:__t <- [DW_OP_plus_uconst 8, DW_OP_stack_value] $r15
	#DEBUG_VALUE: __get_helper<2, int>:__t <- [DW_OP_plus_uconst 8, DW_OP_stack_value] $r15
	#DEBUG_VALUE: _M_head:__t <- [DW_OP_plus_uconst 8, DW_OP_stack_value] $r15
	#DEBUG_VALUE: _M_head:__b <- [DW_OP_plus_uconst 8, DW_OP_stack_value] $r15
	#DEBUG_VALUE: operator()<std::tuple<int, int, int> &>:out <- [DW_OP_plus_uconst 8, DW_OP_stack_value] $r15
	#DEBUG_VALUE: execute<S, std::tuple<int, int, int> &, const (lambda at ./new2.cpp:108:59) &>:input <- [DW_OP_plus_uconst 8, DW_OP_stack_value] $r15
	#DEBUG_VALUE: operator()<std::tuple<int, int, int> >:t <- [DW_OP_plus_uconst 8, DW_OP_stack_value] $r15
	#DEBUG_VALUE: get<0, int, int, int>:__t <- [DW_OP_plus_uconst 8, DW_OP_stack_value] $r15
	#DEBUG_VALUE: __get_helper<0, int, int, int>:__t <- [DW_OP_plus_uconst 8, DW_OP_stack_value] $r15
	#DEBUG_VALUE: _M_head:__t <- [DW_OP_plus_uconst 8, DW_OP_stack_value] $r15
	#DEBUG_VALUE: _M_head:__b <- [DW_OP_plus_uconst 8, DW_OP_plus_uconst 8, DW_OP_stack_value] $r15
	#DEBUG_VALUE: get<1, int, int, int>:__t <- [DW_OP_plus_uconst 8, DW_OP_stack_value] $r15
	#DEBUG_VALUE: __get_helper<1, int, int>:__t <- [DW_OP_plus_uconst 8, DW_OP_stack_value] $r15
	#DEBUG_VALUE: _M_head:__t <- [DW_OP_plus_uconst 8, DW_OP_stack_value] $r15
	#DEBUG_VALUE: _M_head:__b <- [DW_OP_plus_uconst 8, DW_OP_plus_uconst 4, DW_OP_stack_value] $r15
	#DEBUG_VALUE: execute<S, int &, (lambda at ./new2.cpp:108:59)>:scheduler <- [DW_OP_plus_uconst 8, DW_OP_plus_uconst 56, DW_OP_deref, DW_OP_stack_value] $r14
	#DEBUG_VALUE: execute<S, int &, (lambda at ./new2.cpp:108:59)>:this <- [DW_OP_plus_uconst 8, DW_OP_plus_uconst 48, DW_OP_deref, DW_OP_stack_value] $r14
	#DEBUG_VALUE: operator():this <- [DW_OP_plus_uconst 8, DW_OP_stack_value] $r14
	#DEBUG_VALUE: __invoke_impl<void, (lambda at ./new2.cpp:107:23)>:__f <- [DW_OP_plus_uconst 8, DW_OP_stack_value] $r14
	#DEBUG_VALUE: __invoke<(lambda at ./new2.cpp:107:23)>:__fn <- [DW_OP_plus_uconst 8, DW_OP_stack_value] $r14
	#DEBUG_VALUE: _M_invoke<0>:this <- [DW_OP_plus_uconst 8, DW_OP_stack_value] $r14
	#DEBUG_VALUE: operator():this <- [DW_OP_plus_uconst 8, DW_OP_stack_value] $r14
	#DEBUG_VALUE: _M_run:this <- $r14
	.loc	67 561 2 prologue_end   # /usr/bin/../lib64/gcc/x86_64-pc-linux-gnu/8.0.0/../../../../include/c++/8.0.0/ostream:561:2
	movl	$_ZSt4cout, %edi
	movl	$.L.str.7, %esi
.Ltmp232:
	#DEBUG_VALUE: operator<<<std::char_traits<char> >:__s <- $rsi
	movl	$3, %edx
	callq	_ZSt16__ostream_insertIcSt11char_traitsIcEERSt13basic_ostreamIT_T0_ES6_PKS3_l
.Ltmp233:
	#DEBUG_VALUE: operator():x <- 4
	#DEBUG_VALUE: operator<<<std::char_traits<char> >:__out <- undef
	.loc	67 561 2 is_stmt 0      # /usr/bin/../lib64/gcc/x86_64-pc-linux-gnu/8.0.0/../../../../include/c++/8.0.0/ostream:561:2
	movl	$_ZSt4cout, %edi
	movl	$.L.str.1, %esi
.Ltmp234:
	#DEBUG_VALUE: operator<<<std::char_traits<char> >:__s <- $rsi
	movl	$1, %edx
	callq	_ZSt16__ostream_insertIcSt11char_traitsIcEERSt13basic_ostreamIT_T0_ES6_PKS3_l
.Ltmp235:
	.loc	4 161 39 is_stmt 1      # ./new2.cpp:161:39
	movl	$_ZSt4cout, %edi
.Ltmp236:
	#DEBUG_VALUE: operator<<<std::char_traits<char> >:__out <- $rdi
	movl	$4, %esi
	callq	_ZNSolsEi
.Ltmp237:
	#DEBUG_VALUE: operator<<<std::char_traits<char> >:__out <- $rax
	.loc	67 561 2                # /usr/bin/../lib64/gcc/x86_64-pc-linux-gnu/8.0.0/../../../../include/c++/8.0.0/ostream:561:2
	movl	$.L.str.6, %esi
.Ltmp238:
	#DEBUG_VALUE: operator<<<std::char_traits<char> >:__s <- $rsi
	movl	$5, %edx
	movq	%rax, %rdi
	callq	_ZSt16__ostream_insertIcSt11char_traitsIcEERSt13basic_ostreamIT_T0_ES6_PKS3_l
.Ltmp239:
	.loc	4 109 42                # ./new2.cpp:109:42
	movl	$5, 8(%r15)
.Ltmp240:
	#DEBUG_VALUE: fetch_sub:__m <- 5
	#DEBUG_VALUE: fetch_sub:__i <- 1
	#DEBUG_VALUE: fetch_sub:this <- [DW_OP_stack_value] $r15
	.loc	13 524 16               # /usr/bin/../lib64/gcc/x86_64-pc-linux-gnu/8.0.0/../../../../include/c++/8.0.0/bits/atomic_base.h:524:16
	lock		subl	$1, (%r15)
.Ltmp241:
	.loc	4 111 24                # ./new2.cpp:111:24
	jne	.LBB8_2
.Ltmp242:
# %bb.1:
	#DEBUG_VALUE: _M_run:this <- $r14
	#DEBUG_VALUE: operator():this <- [DW_OP_plus_uconst 8, DW_OP_stack_value] $r14
	#DEBUG_VALUE: _M_invoke<0>:this <- [DW_OP_plus_uconst 8, DW_OP_stack_value] $r14
	#DEBUG_VALUE: __invoke<(lambda at ./new2.cpp:107:23)>:__fn <- [DW_OP_plus_uconst 8, DW_OP_stack_value] $r14
	#DEBUG_VALUE: __invoke_impl<void, (lambda at ./new2.cpp:107:23)>:__f <- [DW_OP_plus_uconst 8, DW_OP_stack_value] $r14
	#DEBUG_VALUE: operator():this <- [DW_OP_plus_uconst 8, DW_OP_stack_value] $r14
	#DEBUG_VALUE: execute<S, int &, (lambda at ./new2.cpp:108:59)>:this <- [DW_OP_plus_uconst 8, DW_OP_plus_uconst 48, DW_OP_deref, DW_OP_stack_value] $r14
	#DEBUG_VALUE: execute<S, int &, (lambda at ./new2.cpp:108:59)>:scheduler <- [DW_OP_plus_uconst 8, DW_OP_plus_uconst 56, DW_OP_deref, DW_OP_stack_value] $r14
	#DEBUG_VALUE: operator()<std::tuple<int, int, int> >:t <- [DW_OP_plus_uconst 8, DW_OP_stack_value] $r15
	#DEBUG_VALUE: execute<S, std::tuple<int, int, int> &, const (lambda at ./new2.cpp:108:59) &>:input <- [DW_OP_plus_uconst 8, DW_OP_stack_value] $r15
	#DEBUG_VALUE: operator()<std::tuple<int, int, int> &>:out <- [DW_OP_plus_uconst 8, DW_OP_stack_value] $r15
	#DEBUG_VALUE: execute<S, std::tuple<int, int, int> &, const (lambda at ./new2.cpp:108:59) &>:then <- [DW_OP_plus_uconst 8, DW_OP_plus_uconst 16, DW_OP_stack_value] $r14
	.loc	4 183 52                # ./new2.cpp:183:52
	movl	16(%r15), %esi
	.loc	4 183 49 is_stmt 0      # ./new2.cpp:183:49
	movl	$_ZSt4cout, %edi
	callq	_ZNSolsEi
	movq	%rax, %rbx
.Ltmp243:
	#DEBUG_VALUE: operator<<<std::char_traits<char> >:__out <- $rbx
	.loc	67 561 2 is_stmt 1      # /usr/bin/../lib64/gcc/x86_64-pc-linux-gnu/8.0.0/../../../../include/c++/8.0.0/ostream:561:2
	movl	$.L.str, %esi
	movl	$2, %edx
	movq	%rax, %rdi
	callq	_ZSt16__ostream_insertIcSt11char_traitsIcEERSt13basic_ostreamIT_T0_ES6_PKS3_l
.Ltmp244:
	.loc	4 184 52                # ./new2.cpp:184:52
	movl	12(%r15), %esi
	.loc	4 184 49 is_stmt 0      # ./new2.cpp:184:49
	movq	%rbx, %rdi
	callq	_ZNSolsEi
	movq	%rax, %rbx
.Ltmp245:
	#DEBUG_VALUE: operator<<<std::char_traits<char> >:__out <- $rbx
	#DEBUG_VALUE: operator<<<std::char_traits<char> >:__s <- undef
	.loc	67 561 2 is_stmt 1      # /usr/bin/../lib64/gcc/x86_64-pc-linux-gnu/8.0.0/../../../../include/c++/8.0.0/ostream:561:2
	movl	$.L.str, %esi
.Ltmp246:
	#DEBUG_VALUE: operator<<<std::char_traits<char> >:__s <- $rsi
	movl	$2, %edx
	movq	%rax, %rdi
	callq	_ZSt16__ostream_insertIcSt11char_traitsIcEERSt13basic_ostreamIT_T0_ES6_PKS3_l
.Ltmp247:
	.loc	4 185 52                # ./new2.cpp:185:52
	movl	8(%r15), %esi
	.loc	4 185 49 is_stmt 0      # ./new2.cpp:185:49
	movq	%rbx, %rdi
	callq	_ZNSolsEi
	movb	$10, 15(%rsp)
.Ltmp248:
	#DEBUG_VALUE: operator<<<std::char_traits<char> >:__c <- 10
	#DEBUG_VALUE: operator<<<std::char_traits<char> >:__out <- $rax
	.loc	4 0 49                  # ./new2.cpp:0:49
	leaq	15(%rsp), %rsi
.Ltmp249:
	#DEBUG_VALUE: operator<<<std::char_traits<char> >:__c <- [DW_OP_plus_uconst 15] [$rsp+0]
	.loc	67 509 14 is_stmt 1     # /usr/bin/../lib64/gcc/x86_64-pc-linux-gnu/8.0.0/../../../../include/c++/8.0.0/ostream:509:14
	movl	$1, %edx
	movq	%rax, %rdi
	callq	_ZSt16__ostream_insertIcSt11char_traitsIcEERSt13basic_ostreamIT_T0_ES6_PKS3_l
.Ltmp250:
	.loc	67 0 14 is_stmt 0       # /usr/bin/../lib64/gcc/x86_64-pc-linux-gnu/8.0.0/../../../../include/c++/8.0.0/ostream:0:14
	movq	24(%r14), %rax
.Ltmp251:
	#DEBUG_VALUE: _M_head:__b <- [DW_OP_plus_uconst 44, DW_OP_plus_uconst 4, DW_OP_stack_value] $rax
	#DEBUG_VALUE: _M_head:__t <- [DW_OP_plus_uconst 44, DW_OP_stack_value] $rax
	#DEBUG_VALUE: __get_helper<0, int, int>:__t <- [DW_OP_plus_uconst 44, DW_OP_stack_value] $rax
	#DEBUG_VALUE: get<0, int, int>:__t <- [DW_OP_plus_uconst 44, DW_OP_stack_value] $rax
	.loc	4 109 42 is_stmt 1      # ./new2.cpp:109:42
	movl	$-1, 48(%rax)
.Ltmp252:
	#DEBUG_VALUE: fetch_sub:__m <- 5
	#DEBUG_VALUE: fetch_sub:__i <- 1
	#DEBUG_VALUE: fetch_sub:this <- [DW_OP_plus_uconst 36, DW_OP_stack_value] $rax
	.loc	13 524 16               # /usr/bin/../lib64/gcc/x86_64-pc-linux-gnu/8.0.0/../../../../include/c++/8.0.0/bits/atomic_base.h:524:16
	lock		subl	$1, 36(%rax)
.Ltmp253:
.LBB8_2:
	#DEBUG_VALUE: _M_run:this <- $r14
	.loc	60 186 24               # /usr/bin/../lib64/gcc/x86_64-pc-linux-gnu/8.0.0/../../../../include/c++/8.0.0/thread:186:24
	addq	$16, %rsp
	popq	%rbx
	popq	%r14
.Ltmp254:
	popq	%r15
	retq
.Ltmp255:
.Lfunc_end8:
	.size	_ZNSt6thread11_State_implINS_8_InvokerISt5tupleIJZZN8node_andIJ8node_seqI4leafIiZ4mainE3$_0ES5_IiZ4mainE3$_1EES4_IS5_IiZ4mainE3$_2ES5_IiZ4mainE3$_3EES4_IS5_IiZ4mainE3$_4ES5_IiZ4mainE3$_5EEEE7executeI1SRiZNS4_ISL_S5_IS2_IJiiiEEZ4mainE4$_10EE7executeISN_SO_ZZZNS3_IJSS_S4_IS3_IJS4_IS5_IiZ4mainE3$_6ES5_IiZ4mainE3$_7EES4_IS5_IiZ4mainE3$_8ES5_IiZ4mainE3$_9EEEES5_IS2_IJiiEEZ4mainE4$_11EEEE7executeISN_iZ4mainE4$_12EEvRT_OT0_OT1_ENKUlS1C_RS1E_E_clISt17integral_constantImLm0EESS_EEDaS1C_S1I_ENKUlvE_clEvEUlOS1C_E_EEvS1D_S1F_S1H_EUlS1P_E_EEvS1D_S1F_S1H_ENKUlS1C_S1I_E_clIS1L_ImLm2EESK_EES1N_S1C_S1I_EUlvE_EEEEE6_M_runEv, .Lfunc_end8-_ZNSt6thread11_State_implINS_8_InvokerISt5tupleIJZZN8node_andIJ8node_seqI4leafIiZ4mainE3$_0ES5_IiZ4mainE3$_1EES4_IS5_IiZ4mainE3$_2ES5_IiZ4mainE3$_3EES4_IS5_IiZ4mainE3$_4ES5_IiZ4mainE3$_5EEEE7executeI1SRiZNS4_ISL_S5_IS2_IJiiiEEZ4mainE4$_10EE7executeISN_SO_ZZZNS3_IJSS_S4_IS3_IJS4_IS5_IiZ4mainE3$_6ES5_IiZ4mainE3$_7EES4_IS5_IiZ4mainE3$_8ES5_IiZ4mainE3$_9EEEES5_IS2_IJiiEEZ4mainE4$_11EEEE7executeISN_iZ4mainE4$_12EEvRT_OT0_OT1_ENKUlS1C_RS1E_E_clISt17integral_constantImLm0EESS_EEDaS1C_S1I_ENKUlvE_clEvEUlOS1C_E_EEvS1D_S1F_S1H_EUlS1P_E_EEvS1D_S1F_S1H_ENKUlS1C_S1I_E_clIS1L_ImLm2EESK_EES1N_S1C_S1I_EUlvE_EEEEE6_M_runEv
	.cfi_endproc
                                        # -- End function
	.p2align	4, 0x90         # -- Begin function _ZNSt6thread11_State_implINS_8_InvokerISt5tupleIJZZN8node_andIJ8node_seqIS3_IJS4_I4leafIiZ4mainE3$_0ES5_IiZ4mainE3$_1EES4_IS5_IiZ4mainE3$_2ES5_IiZ4mainE3$_3EES4_IS5_IiZ4mainE3$_4ES5_IiZ4mainE3$_5EEEES5_IS2_IJiiiEEZ4mainE4$_10EES4_IS3_IJS4_IS5_IiZ4mainE3$_6ES5_IiZ4mainE3$_7EES4_IS5_IiZ4mainE3$_8ES5_IiZ4mainE3$_9EEEES5_IS2_IJiiEEZ4mainE4$_11EEEE7executeI1SiZ4mainE4$_12EEvRT_OT0_OT1_ENKUlS19_RS1B_E_clISt17integral_constantImLm1EES14_EEDaS19_S1F_EUlvE_EEEEED0Ev
	.type	_ZNSt6thread11_State_implINS_8_InvokerISt5tupleIJZZN8node_andIJ8node_seqIS3_IJS4_I4leafIiZ4mainE3$_0ES5_IiZ4mainE3$_1EES4_IS5_IiZ4mainE3$_2ES5_IiZ4mainE3$_3EES4_IS5_IiZ4mainE3$_4ES5_IiZ4mainE3$_5EEEES5_IS2_IJiiiEEZ4mainE4$_10EES4_IS3_IJS4_IS5_IiZ4mainE3$_6ES5_IiZ4mainE3$_7EES4_IS5_IiZ4mainE3$_8ES5_IiZ4mainE3$_9EEEES5_IS2_IJiiEEZ4mainE4$_11EEEE7executeI1SiZ4mainE4$_12EEvRT_OT0_OT1_ENKUlS19_RS1B_E_clISt17integral_constantImLm1EES14_EEDaS19_S1F_EUlvE_EEEEED0Ev,@function
_ZNSt6thread11_State_implINS_8_InvokerISt5tupleIJZZN8node_andIJ8node_seqIS3_IJS4_I4leafIiZ4mainE3$_0ES5_IiZ4mainE3$_1EES4_IS5_IiZ4mainE3$_2ES5_IiZ4mainE3$_3EES4_IS5_IiZ4mainE3$_4ES5_IiZ4mainE3$_5EEEES5_IS2_IJiiiEEZ4mainE4$_10EES4_IS3_IJS4_IS5_IiZ4mainE3$_6ES5_IiZ4mainE3$_7EES4_IS5_IiZ4mainE3$_8ES5_IiZ4mainE3$_9EEEES5_IS2_IJiiEEZ4mainE4$_11EEEE7executeI1SiZ4mainE4$_12EEvRT_OT0_OT1_ENKUlS19_RS1B_E_clISt17integral_constantImLm1EES14_EEDaS19_S1F_EUlvE_EEEEED0Ev: # @"_ZNSt6thread11_State_implINS_8_InvokerISt5tupleIJZZN8node_andIJ8node_seqIS3_IJS4_I4leafIiZ4mainE3$_0ES5_IiZ4mainE3$_1EES4_IS5_IiZ4mainE3$_2ES5_IiZ4mainE3$_3EES4_IS5_IiZ4mainE3$_4ES5_IiZ4mainE3$_5EEEES5_IS2_IJiiiEEZ4mainE4$_10EES4_IS3_IJS4_IS5_IiZ4mainE3$_6ES5_IiZ4mainE3$_7EES4_IS5_IiZ4mainE3$_8ES5_IiZ4mainE3$_9EEEES5_IS2_IJiiEEZ4mainE4$_11EEEE7executeI1SiZ4mainE4$_12EEvRT_OT0_OT1_ENKUlS19_RS1B_E_clISt17integral_constantImLm1EES14_EEDaS19_S1F_EUlvE_EEEEED0Ev"
.Lfunc_begin9:
	.loc	60 178 0                # /usr/bin/../lib64/gcc/x86_64-pc-linux-gnu/8.0.0/../../../../include/c++/8.0.0/thread:178:0
	.cfi_startproc
# %bb.0:
	pushq	%rbx
	.cfi_def_cfa_offset 16
	.cfi_offset %rbx, -16
	#DEBUG_VALUE: ~_State_impl:this <- $rdi
	movq	%rdi, %rbx
.Ltmp256:
	#DEBUG_VALUE: ~_State_impl:this <- $rbx
	.loc	60 178 14 prologue_end  # /usr/bin/../lib64/gcc/x86_64-pc-linux-gnu/8.0.0/../../../../include/c++/8.0.0/thread:178:14
	callq	_ZNSt6thread6_StateD2Ev
	movq	%rbx, %rdi
	popq	%rbx
.Ltmp257:
	jmp	_ZdlPv                  # TAILCALL
.Ltmp258:
.Lfunc_end9:
	.size	_ZNSt6thread11_State_implINS_8_InvokerISt5tupleIJZZN8node_andIJ8node_seqIS3_IJS4_I4leafIiZ4mainE3$_0ES5_IiZ4mainE3$_1EES4_IS5_IiZ4mainE3$_2ES5_IiZ4mainE3$_3EES4_IS5_IiZ4mainE3$_4ES5_IiZ4mainE3$_5EEEES5_IS2_IJiiiEEZ4mainE4$_10EES4_IS3_IJS4_IS5_IiZ4mainE3$_6ES5_IiZ4mainE3$_7EES4_IS5_IiZ4mainE3$_8ES5_IiZ4mainE3$_9EEEES5_IS2_IJiiEEZ4mainE4$_11EEEE7executeI1SiZ4mainE4$_12EEvRT_OT0_OT1_ENKUlS19_RS1B_E_clISt17integral_constantImLm1EES14_EEDaS19_S1F_EUlvE_EEEEED0Ev, .Lfunc_end9-_ZNSt6thread11_State_implINS_8_InvokerISt5tupleIJZZN8node_andIJ8node_seqIS3_IJS4_I4leafIiZ4mainE3$_0ES5_IiZ4mainE3$_1EES4_IS5_IiZ4mainE3$_2ES5_IiZ4mainE3$_3EES4_IS5_IiZ4mainE3$_4ES5_IiZ4mainE3$_5EEEES5_IS2_IJiiiEEZ4mainE4$_10EES4_IS3_IJS4_IS5_IiZ4mainE3$_6ES5_IiZ4mainE3$_7EES4_IS5_IiZ4mainE3$_8ES5_IiZ4mainE3$_9EEEES5_IS2_IJiiEEZ4mainE4$_11EEEE7executeI1SiZ4mainE4$_12EEvRT_OT0_OT1_ENKUlS19_RS1B_E_clISt17integral_constantImLm1EES14_EEDaS19_S1F_EUlvE_EEEEED0Ev
	.cfi_endproc
                                        # -- End function
	.p2align	4, 0x90         # -- Begin function _ZNSt6thread11_State_implINS_8_InvokerISt5tupleIJZZN8node_andIJ8node_seqIS3_IJS4_I4leafIiZ4mainE3$_0ES5_IiZ4mainE3$_1EES4_IS5_IiZ4mainE3$_2ES5_IiZ4mainE3$_3EES4_IS5_IiZ4mainE3$_4ES5_IiZ4mainE3$_5EEEES5_IS2_IJiiiEEZ4mainE4$_10EES4_IS3_IJS4_IS5_IiZ4mainE3$_6ES5_IiZ4mainE3$_7EES4_IS5_IiZ4mainE3$_8ES5_IiZ4mainE3$_9EEEES5_IS2_IJiiEEZ4mainE4$_11EEEE7executeI1SiZ4mainE4$_12EEvRT_OT0_OT1_ENKUlS19_RS1B_E_clISt17integral_constantImLm1EES14_EEDaS19_S1F_EUlvE_EEEEE6_M_runEv
	.type	_ZNSt6thread11_State_implINS_8_InvokerISt5tupleIJZZN8node_andIJ8node_seqIS3_IJS4_I4leafIiZ4mainE3$_0ES5_IiZ4mainE3$_1EES4_IS5_IiZ4mainE3$_2ES5_IiZ4mainE3$_3EES4_IS5_IiZ4mainE3$_4ES5_IiZ4mainE3$_5EEEES5_IS2_IJiiiEEZ4mainE4$_10EES4_IS3_IJS4_IS5_IiZ4mainE3$_6ES5_IiZ4mainE3$_7EES4_IS5_IiZ4mainE3$_8ES5_IiZ4mainE3$_9EEEES5_IS2_IJiiEEZ4mainE4$_11EEEE7executeI1SiZ4mainE4$_12EEvRT_OT0_OT1_ENKUlS19_RS1B_E_clISt17integral_constantImLm1EES14_EEDaS19_S1F_EUlvE_EEEEE6_M_runEv,@function
_ZNSt6thread11_State_implINS_8_InvokerISt5tupleIJZZN8node_andIJ8node_seqIS3_IJS4_I4leafIiZ4mainE3$_0ES5_IiZ4mainE3$_1EES4_IS5_IiZ4mainE3$_2ES5_IiZ4mainE3$_3EES4_IS5_IiZ4mainE3$_4ES5_IiZ4mainE3$_5EEEES5_IS2_IJiiiEEZ4mainE4$_10EES4_IS3_IJS4_IS5_IiZ4mainE3$_6ES5_IiZ4mainE3$_7EES4_IS5_IiZ4mainE3$_8ES5_IiZ4mainE3$_9EEEES5_IS2_IJiiEEZ4mainE4$_11EEEE7executeI1SiZ4mainE4$_12EEvRT_OT0_OT1_ENKUlS19_RS1B_E_clISt17integral_constantImLm1EES14_EEDaS19_S1F_EUlvE_EEEEE6_M_runEv: # @"_ZNSt6thread11_State_implINS_8_InvokerISt5tupleIJZZN8node_andIJ8node_seqIS3_IJS4_I4leafIiZ4mainE3$_0ES5_IiZ4mainE3$_1EES4_IS5_IiZ4mainE3$_2ES5_IiZ4mainE3$_3EES4_IS5_IiZ4mainE3$_4ES5_IiZ4mainE3$_5EEEES5_IS2_IJiiiEEZ4mainE4$_10EES4_IS3_IJS4_IS5_IiZ4mainE3$_6ES5_IiZ4mainE3$_7EES4_IS5_IiZ4mainE3$_8ES5_IiZ4mainE3$_9EEEES5_IS2_IJiiEEZ4mainE4$_11EEEE7executeI1SiZ4mainE4$_12EEvRT_OT0_OT1_ENKUlS19_RS1B_E_clISt17integral_constantImLm1EES14_EEDaS19_S1F_EUlvE_EEEEE6_M_runEv"
.Lfunc_begin10:
	.loc	60 186 0                # /usr/bin/../lib64/gcc/x86_64-pc-linux-gnu/8.0.0/../../../../include/c++/8.0.0/thread:186:0
	.cfi_startproc
	.cfi_personality 3, __gxx_personality_v0
	.cfi_lsda 3, .Lexception2
# %bb.0:
	pushq	%rbp
	.cfi_def_cfa_offset 16
	pushq	%r15
	.cfi_def_cfa_offset 24
	pushq	%r14
	.cfi_def_cfa_offset 32
	pushq	%r13
	.cfi_def_cfa_offset 40
	pushq	%r12
	.cfi_def_cfa_offset 48
	pushq	%rbx
	.cfi_def_cfa_offset 56
	subq	$24, %rsp
	.cfi_def_cfa_offset 80
	.cfi_offset %rbx, -56
	.cfi_offset %r12, -48
	.cfi_offset %r13, -40
	.cfi_offset %r14, -32
	.cfi_offset %r15, -24
	.cfi_offset %rbp, -16
	#DEBUG_VALUE: _M_run:this <- $rdi
.Ltmp271:
	#DEBUG_VALUE: operator():this <- [DW_OP_plus_uconst 8, DW_OP_stack_value] $rdi
	#DEBUG_VALUE: _M_invoke<0>:this <- [DW_OP_plus_uconst 8, DW_OP_stack_value] $rdi
	#DEBUG_VALUE: __invoke<(lambda at ./new2.cpp:107:23)>:__fn <- [DW_OP_plus_uconst 8, DW_OP_stack_value] $rdi
	#DEBUG_VALUE: __invoke_impl<void, (lambda at ./new2.cpp:107:23)>:__f <- [DW_OP_plus_uconst 8, DW_OP_stack_value] $rdi
	#DEBUG_VALUE: operator():this <- [DW_OP_plus_uconst 8, DW_OP_stack_value] $rdi
	movq	16(%rdi), %r15
	#DEBUG_VALUE: operator():this <- [DW_OP_plus_uconst 8, DW_OP_stack_value] $rdi
	#DEBUG_VALUE: __invoke_impl<void, (lambda at ./new2.cpp:107:23)>:__f <- [DW_OP_plus_uconst 8, DW_OP_stack_value] $rdi
	#DEBUG_VALUE: __invoke<(lambda at ./new2.cpp:107:23)>:__fn <- [DW_OP_plus_uconst 8, DW_OP_stack_value] $rdi
	#DEBUG_VALUE: _M_invoke<0>:this <- [DW_OP_plus_uconst 8, DW_OP_stack_value] $rdi
	#DEBUG_VALUE: operator():this <- [DW_OP_plus_uconst 8, DW_OP_stack_value] $rdi
	#DEBUG_VALUE: _M_run:this <- $rdi
.Ltmp272:
	.loc	4 108 17 prologue_end   # ./new2.cpp:108:17
	movq	24(%rdi), %rbx
	.loc	4 108 27 is_stmt 0      # ./new2.cpp:108:27
	movq	32(%rdi), %r14
.Ltmp273:
	#DEBUG_VALUE: access:this <- [DW_OP_plus_uconst 40, DW_OP_stack_value] $r15
	.loc	4 109 30 is_stmt 1      # ./new2.cpp:109:30
	movq	40(%rdi), %r12
	leaq	8(%rdi), %r13
	movl	40(%r15), %eax
.Ltmp274:
	#DEBUG_VALUE: construct<int &>:this <- [DW_OP_plus_uconst 4, DW_OP_stack_value] $rbx
	#DEBUG_VALUE: execute<S, int &, (lambda at ./new2.cpp:108:59)>:scheduler <- $r14
	#DEBUG_VALUE: execute<S, int &, (lambda at ./new2.cpp:66:36)>:scheduler <- $r14
	#DEBUG_VALUE: execute<S, int &, (lambda at ./new2.cpp:108:59)>:this <- $rbx
	#DEBUG_VALUE: execute<S, int &, (lambda at ./new2.cpp:66:36)>:this <- [DW_OP_stack_value] $rbx
	.loc	16 48 13                # ./../include/./orizzonte/./utility/aligned_storage.hpp:48:13
	movl	%eax, 4(%rbx)
.Ltmp275:
	.loc	60 82 23                # /usr/bin/../lib64/gcc/x86_64-pc-linux-gnu/8.0.0/../../../../include/c++/8.0.0/thread:82:23
	movq	$0, (%rsp)
.Ltmp276:
	.loc	60 197 20               # /usr/bin/../lib64/gcc/x86_64-pc-linux-gnu/8.0.0/../../../../include/c++/8.0.0/thread:197:20
	movl	$80, %edi
.Ltmp277:
	callq	_Znwm
.Ltmp278:
	#DEBUG_VALUE: _State_impl:this <- $rax
	.loc	60 183 2                # /usr/bin/../lib64/gcc/x86_64-pc-linux-gnu/8.0.0/../../../../include/c++/8.0.0/thread:183:2
	movq	$_ZTVNSt6thread11_State_implINS_8_InvokerISt5tupleIJZZN8node_andIJ8node_seqI4leafIiZ4mainE3$_6ES5_IiZ4mainE3$_7EES4_IS5_IiZ4mainE3$_8ES5_IiZ4mainE3$_9EEEE7executeI1SRiZNS4_ISG_S5_IS2_IJiiEEZ4mainE4$_11EE7executeISI_SJ_ZZZNS3_IJS4_IS3_IJS4_IS5_IiZ4mainE3$_0ES5_IiZ4mainE3$_1EES4_IS5_IiZ4mainE3$_2ES5_IiZ4mainE3$_3EES4_IS5_IiZ4mainE3$_4ES5_IiZ4mainE3$_5EEEES5_IS2_IJiiiEEZ4mainE4$_10EESN_EE7executeISI_iZ4mainE4$_12EEvRT_OT0_OT1_ENKUlS1C_RS1E_E_clISt17integral_constantImLm1EESN_EEDaS1C_S1I_ENKUlvE_clEvEUlOS1C_E_EEvS1D_S1F_S1H_EUlS1P_E_EEvS1D_S1F_S1H_ENKUlS1C_S1I_E_clIS1L_ImLm0EESA_EES1N_S1C_S1I_EUlvE_EEEEEE+16, (%rax)
.Ltmp279:
	.loc	5 133 4                 # /usr/bin/../lib64/gcc/x86_64-pc-linux-gnu/8.0.0/../../../../include/c++/8.0.0/tuple:133:4
	movq	%rbx, 8(%rax)
	movq	%r14, 16(%rax)
	movq	%r15, 24(%rax)
	movq	%r12, 32(%rax)
	movq	%r13, 40(%rax)
	movq	%rbx, 48(%rax)
	movq	%rbx, 56(%rax)
	movq	%r14, 64(%rax)
	leaq	8(%rsp), %rbp
	movq	%rbp, 72(%rax)
.Ltmp280:
	#DEBUG_VALUE: unique_ptr<std::default_delete<std::thread::_State>, void>:__p <- $rax
	#DEBUG_VALUE: __uniq_ptr_impl:__p <- $rax
	.loc	61 143 56               # /usr/bin/../lib64/gcc/x86_64-pc-linux-gnu/8.0.0/../../../../include/c++/8.0.0/bits/unique_ptr.h:143:56
	movq	%rax, 16(%rsp)
.Ltmp259:
	movq	%rsp, %rdi
.Ltmp281:
	#DEBUG_VALUE: id:this <- [DW_OP_stack_value] [$rsp+0]
	#DEBUG_VALUE: thread<(lambda at ./new2.cpp:107:23)>:this <- [$rsp+0]
	.loc	61 0 56 is_stmt 0       # /usr/bin/../lib64/gcc/x86_64-pc-linux-gnu/8.0.0/../../../../include/c++/8.0.0/bits/unique_ptr.h:0:56
	leaq	16(%rsp), %rsi
.Ltmp282:
	#DEBUG_VALUE: __uniq_ptr_impl:this <- [DW_OP_plus_uconst 16, DW_OP_stack_value] [$rsp+0]
	#DEBUG_VALUE: unique_ptr<std::default_delete<std::thread::_State>, void>:this <- [DW_OP_plus_uconst 16] [$rsp+0]
	.loc	60 126 9 is_stmt 1      # /usr/bin/../lib64/gcc/x86_64-pc-linux-gnu/8.0.0/../../../../include/c++/8.0.0/thread:126:9
	movl	$pthread_create, %edx
.Ltmp283:
	#DEBUG_VALUE: __depend <- $rdx
	callq	_ZNSt6thread15_M_start_threadESt10unique_ptrINS_6_StateESt14default_deleteIS1_EEPFvvE
.Ltmp284:
.Ltmp260:
# %bb.1:
	#DEBUG_VALUE: thread<(lambda at ./new2.cpp:107:23)>:this <- [$rsp+0]
	#DEBUG_VALUE: execute<S, int &, (lambda at ./new2.cpp:66:36)>:this <- [DW_OP_stack_value] $rbx
	#DEBUG_VALUE: execute<S, int &, (lambda at ./new2.cpp:108:59)>:this <- $rbx
	#DEBUG_VALUE: execute<S, int &, (lambda at ./new2.cpp:66:36)>:scheduler <- $r14
	#DEBUG_VALUE: execute<S, int &, (lambda at ./new2.cpp:108:59)>:scheduler <- $r14
	.loc	61 273 6                # /usr/bin/../lib64/gcc/x86_64-pc-linux-gnu/8.0.0/../../../../include/c++/8.0.0/bits/unique_ptr.h:273:6
	movq	16(%rsp), %rdi
.Ltmp285:
	#DEBUG_VALUE: operator():__ptr <- $rdi
	.loc	61 273 12 is_stmt 0     # /usr/bin/../lib64/gcc/x86_64-pc-linux-gnu/8.0.0/../../../../include/c++/8.0.0/bits/unique_ptr.h:273:12
	testq	%rdi, %rdi
.Ltmp286:
	.loc	61 273 6                # /usr/bin/../lib64/gcc/x86_64-pc-linux-gnu/8.0.0/../../../../include/c++/8.0.0/bits/unique_ptr.h:273:6
	je	.LBB10_3
.Ltmp287:
# %bb.2:
	#DEBUG_VALUE: operator():__ptr <- $rdi
	#DEBUG_VALUE: thread<(lambda at ./new2.cpp:107:23)>:this <- [$rsp+0]
	#DEBUG_VALUE: execute<S, int &, (lambda at ./new2.cpp:66:36)>:this <- [DW_OP_stack_value] $rbx
	#DEBUG_VALUE: execute<S, int &, (lambda at ./new2.cpp:108:59)>:this <- $rbx
	#DEBUG_VALUE: execute<S, int &, (lambda at ./new2.cpp:66:36)>:scheduler <- $r14
	#DEBUG_VALUE: execute<S, int &, (lambda at ./new2.cpp:108:59)>:scheduler <- $r14
	.loc	61 81 2 is_stmt 1       # /usr/bin/../lib64/gcc/x86_64-pc-linux-gnu/8.0.0/../../../../include/c++/8.0.0/bits/unique_ptr.h:81:2
	movq	(%rdi), %rax
	callq	*8(%rax)
.Ltmp288:
.LBB10_3:
	#DEBUG_VALUE: execute<S, int &, (lambda at ./new2.cpp:66:36)>:this <- [DW_OP_stack_value] $rbx
	#DEBUG_VALUE: execute<S, int &, (lambda at ./new2.cpp:108:59)>:this <- $rbx
	#DEBUG_VALUE: execute<S, int &, (lambda at ./new2.cpp:66:36)>:scheduler <- $r14
	#DEBUG_VALUE: execute<S, int &, (lambda at ./new2.cpp:108:59)>:scheduler <- $r14
.Ltmp262:
	.loc	61 0 2 is_stmt 0        # /usr/bin/../lib64/gcc/x86_64-pc-linux-gnu/8.0.0/../../../../include/c++/8.0.0/bits/unique_ptr.h:0:2
	movq	%rsp, %rdi
	.loc	4 15 35 is_stmt 1       # ./new2.cpp:15:35
	callq	_ZNSt6thread6detachEv
.Ltmp263:
.Ltmp289:
# %bb.4:
	#DEBUG_VALUE: execute<S, int &, (lambda at ./new2.cpp:66:36)>:this <- [DW_OP_stack_value] $rbx
	#DEBUG_VALUE: execute<S, int &, (lambda at ./new2.cpp:108:59)>:this <- $rbx
	#DEBUG_VALUE: execute<S, int &, (lambda at ./new2.cpp:66:36)>:scheduler <- $r14
	#DEBUG_VALUE: execute<S, int &, (lambda at ./new2.cpp:108:59)>:scheduler <- $r14
	#DEBUG_VALUE: operator==:__y <- 0
	.loc	60 276 26               # /usr/bin/../lib64/gcc/x86_64-pc-linux-gnu/8.0.0/../../../../include/c++/8.0.0/thread:276:26
	cmpq	$0, (%rsp)
.Ltmp290:
	.loc	60 134 11               # /usr/bin/../lib64/gcc/x86_64-pc-linux-gnu/8.0.0/../../../../include/c++/8.0.0/thread:134:11
	jne	.LBB10_5
.Ltmp291:
# %bb.12:
	#DEBUG_VALUE: execute<S, int &, (lambda at ./new2.cpp:66:36)>:this <- [DW_OP_stack_value] $rbx
	#DEBUG_VALUE: execute<S, int &, (lambda at ./new2.cpp:108:59)>:this <- $rbx
	#DEBUG_VALUE: execute<S, int &, (lambda at ./new2.cpp:66:36)>:scheduler <- $r14
	#DEBUG_VALUE: execute<S, int &, (lambda at ./new2.cpp:108:59)>:scheduler <- $r14
	.loc	60 82 23                # /usr/bin/../lib64/gcc/x86_64-pc-linux-gnu/8.0.0/../../../../include/c++/8.0.0/thread:82:23
	movq	$0, (%rsp)
.Ltmp292:
	.loc	60 197 20               # /usr/bin/../lib64/gcc/x86_64-pc-linux-gnu/8.0.0/../../../../include/c++/8.0.0/thread:197:20
	movl	$80, %edi
	callq	_Znwm
.Ltmp293:
	#DEBUG_VALUE: _State_impl:this <- $rax
	.loc	60 183 2                # /usr/bin/../lib64/gcc/x86_64-pc-linux-gnu/8.0.0/../../../../include/c++/8.0.0/thread:183:2
	movq	$_ZTVNSt6thread11_State_implINS_8_InvokerISt5tupleIJZZN8node_andIJ8node_seqI4leafIiZ4mainE3$_6ES5_IiZ4mainE3$_7EES4_IS5_IiZ4mainE3$_8ES5_IiZ4mainE3$_9EEEE7executeI1SRiZNS4_ISG_S5_IS2_IJiiEEZ4mainE4$_11EE7executeISI_SJ_ZZZNS3_IJS4_IS3_IJS4_IS5_IiZ4mainE3$_0ES5_IiZ4mainE3$_1EES4_IS5_IiZ4mainE3$_2ES5_IiZ4mainE3$_3EES4_IS5_IiZ4mainE3$_4ES5_IiZ4mainE3$_5EEEES5_IS2_IJiiiEEZ4mainE4$_10EESN_EE7executeISI_iZ4mainE4$_12EEvRT_OT0_OT1_ENKUlS1C_RS1E_E_clISt17integral_constantImLm1EESN_EEDaS1C_S1I_ENKUlvE_clEvEUlOS1C_E_EEvS1D_S1F_S1H_EUlS1P_E_EEvS1D_S1F_S1H_ENKUlS1C_S1I_E_clIS1M_SF_EES1N_S1C_S1I_EUlvE_EEEEEE+16, (%rax)
.Ltmp294:
	.loc	5 133 4                 # /usr/bin/../lib64/gcc/x86_64-pc-linux-gnu/8.0.0/../../../../include/c++/8.0.0/tuple:133:4
	movq	%rbx, 8(%rax)
	movq	%r14, 16(%rax)
	movq	%r15, 24(%rax)
	movq	%r12, 32(%rax)
	movq	%r13, 40(%rax)
	movq	%rbx, 48(%rax)
	movq	%rbx, 56(%rax)
	movq	%r14, 64(%rax)
	movq	%rbp, 72(%rax)
.Ltmp295:
	#DEBUG_VALUE: unique_ptr<std::default_delete<std::thread::_State>, void>:__p <- $rax
	#DEBUG_VALUE: __uniq_ptr_impl:__p <- $rax
	.loc	61 143 56               # /usr/bin/../lib64/gcc/x86_64-pc-linux-gnu/8.0.0/../../../../include/c++/8.0.0/bits/unique_ptr.h:143:56
	movq	%rax, 16(%rsp)
.Ltmp265:
	movq	%rsp, %rdi
.Ltmp296:
	#DEBUG_VALUE: id:this <- [DW_OP_stack_value] [$rsp+0]
	#DEBUG_VALUE: thread<(lambda at ./new2.cpp:107:23)>:this <- [$rsp+0]
	.loc	61 0 56 is_stmt 0       # /usr/bin/../lib64/gcc/x86_64-pc-linux-gnu/8.0.0/../../../../include/c++/8.0.0/bits/unique_ptr.h:0:56
	leaq	16(%rsp), %rsi
.Ltmp297:
	#DEBUG_VALUE: __uniq_ptr_impl:this <- [DW_OP_plus_uconst 16, DW_OP_stack_value] [$rsp+0]
	#DEBUG_VALUE: unique_ptr<std::default_delete<std::thread::_State>, void>:this <- [DW_OP_plus_uconst 16] [$rsp+0]
	.loc	60 126 9 is_stmt 1      # /usr/bin/../lib64/gcc/x86_64-pc-linux-gnu/8.0.0/../../../../include/c++/8.0.0/thread:126:9
	movl	$pthread_create, %edx
.Ltmp298:
	#DEBUG_VALUE: __depend <- $rdx
	callq	_ZNSt6thread15_M_start_threadESt10unique_ptrINS_6_StateESt14default_deleteIS1_EEPFvvE
.Ltmp299:
.Ltmp266:
# %bb.13:
	#DEBUG_VALUE: thread<(lambda at ./new2.cpp:107:23)>:this <- [$rsp+0]
	#DEBUG_VALUE: execute<S, int &, (lambda at ./new2.cpp:66:36)>:this <- [DW_OP_stack_value] $rbx
	#DEBUG_VALUE: execute<S, int &, (lambda at ./new2.cpp:108:59)>:this <- $rbx
	#DEBUG_VALUE: execute<S, int &, (lambda at ./new2.cpp:66:36)>:scheduler <- $r14
	#DEBUG_VALUE: execute<S, int &, (lambda at ./new2.cpp:108:59)>:scheduler <- $r14
	.loc	61 273 6                # /usr/bin/../lib64/gcc/x86_64-pc-linux-gnu/8.0.0/../../../../include/c++/8.0.0/bits/unique_ptr.h:273:6
	movq	16(%rsp), %rdi
.Ltmp300:
	#DEBUG_VALUE: operator():__ptr <- $rdi
	.loc	61 273 12 is_stmt 0     # /usr/bin/../lib64/gcc/x86_64-pc-linux-gnu/8.0.0/../../../../include/c++/8.0.0/bits/unique_ptr.h:273:12
	testq	%rdi, %rdi
.Ltmp301:
	.loc	61 273 6                # /usr/bin/../lib64/gcc/x86_64-pc-linux-gnu/8.0.0/../../../../include/c++/8.0.0/bits/unique_ptr.h:273:6
	je	.LBB10_15
.Ltmp302:
# %bb.14:
	#DEBUG_VALUE: operator():__ptr <- $rdi
	#DEBUG_VALUE: thread<(lambda at ./new2.cpp:107:23)>:this <- [$rsp+0]
	#DEBUG_VALUE: execute<S, int &, (lambda at ./new2.cpp:66:36)>:this <- [DW_OP_stack_value] $rbx
	#DEBUG_VALUE: execute<S, int &, (lambda at ./new2.cpp:108:59)>:this <- $rbx
	#DEBUG_VALUE: execute<S, int &, (lambda at ./new2.cpp:66:36)>:scheduler <- $r14
	#DEBUG_VALUE: execute<S, int &, (lambda at ./new2.cpp:108:59)>:scheduler <- $r14
	.loc	61 81 2 is_stmt 1       # /usr/bin/../lib64/gcc/x86_64-pc-linux-gnu/8.0.0/../../../../include/c++/8.0.0/bits/unique_ptr.h:81:2
	movq	(%rdi), %rax
	callq	*8(%rax)
.Ltmp303:
.LBB10_15:
	#DEBUG_VALUE: execute<S, int &, (lambda at ./new2.cpp:66:36)>:this <- [DW_OP_stack_value] $rbx
	#DEBUG_VALUE: execute<S, int &, (lambda at ./new2.cpp:108:59)>:this <- $rbx
	#DEBUG_VALUE: execute<S, int &, (lambda at ./new2.cpp:66:36)>:scheduler <- $r14
	#DEBUG_VALUE: execute<S, int &, (lambda at ./new2.cpp:108:59)>:scheduler <- $r14
.Ltmp268:
	.loc	61 0 2 is_stmt 0        # /usr/bin/../lib64/gcc/x86_64-pc-linux-gnu/8.0.0/../../../../include/c++/8.0.0/bits/unique_ptr.h:0:2
	movq	%rsp, %rdi
	.loc	4 15 35 is_stmt 1       # ./new2.cpp:15:35
	callq	_ZNSt6thread6detachEv
.Ltmp269:
.Ltmp304:
# %bb.16:
	#DEBUG_VALUE: execute<S, int &, (lambda at ./new2.cpp:66:36)>:this <- [DW_OP_stack_value] $rbx
	#DEBUG_VALUE: execute<S, int &, (lambda at ./new2.cpp:108:59)>:this <- $rbx
	#DEBUG_VALUE: execute<S, int &, (lambda at ./new2.cpp:66:36)>:scheduler <- $r14
	#DEBUG_VALUE: execute<S, int &, (lambda at ./new2.cpp:108:59)>:scheduler <- $r14
	#DEBUG_VALUE: operator==:__y <- 0
	.loc	60 276 26               # /usr/bin/../lib64/gcc/x86_64-pc-linux-gnu/8.0.0/../../../../include/c++/8.0.0/thread:276:26
	cmpq	$0, (%rsp)
.Ltmp305:
	.loc	60 134 11               # /usr/bin/../lib64/gcc/x86_64-pc-linux-gnu/8.0.0/../../../../include/c++/8.0.0/thread:134:11
	jne	.LBB10_5
.Ltmp306:
# %bb.17:
	.loc	60 186 24               # /usr/bin/../lib64/gcc/x86_64-pc-linux-gnu/8.0.0/../../../../include/c++/8.0.0/thread:186:24
	addq	$24, %rsp
	popq	%rbx
	popq	%r12
	popq	%r13
	popq	%r14
	popq	%r15
	popq	%rbp
	retq
.LBB10_19:
.Ltmp307:
	#DEBUG_VALUE: execute<S, int &, (lambda at ./new2.cpp:66:36)>:this <- [DW_OP_stack_value] $rbx
	#DEBUG_VALUE: execute<S, int &, (lambda at ./new2.cpp:108:59)>:this <- $rbx
	#DEBUG_VALUE: execute<S, int &, (lambda at ./new2.cpp:66:36)>:scheduler <- $r14
	#DEBUG_VALUE: execute<S, int &, (lambda at ./new2.cpp:108:59)>:scheduler <- $r14
.Ltmp270:
	.loc	60 0 24 is_stmt 0       # /usr/bin/../lib64/gcc/x86_64-pc-linux-gnu/8.0.0/../../../../include/c++/8.0.0/thread:0:24
	movq	%rax, %rbx
.Ltmp308:
	#DEBUG_VALUE: operator==:__y <- 0
	.loc	60 276 26 is_stmt 1     # /usr/bin/../lib64/gcc/x86_64-pc-linux-gnu/8.0.0/../../../../include/c++/8.0.0/thread:276:26
	cmpq	$0, (%rsp)
.Ltmp309:
	.loc	60 134 11               # /usr/bin/../lib64/gcc/x86_64-pc-linux-gnu/8.0.0/../../../../include/c++/8.0.0/thread:134:11
	jne	.LBB10_5
	jmp	.LBB10_9
.Ltmp310:
.LBB10_18:
	#DEBUG_VALUE: execute<S, int &, (lambda at ./new2.cpp:66:36)>:this <- [DW_OP_stack_value] $rbx
	#DEBUG_VALUE: execute<S, int &, (lambda at ./new2.cpp:108:59)>:this <- $rbx
	#DEBUG_VALUE: execute<S, int &, (lambda at ./new2.cpp:66:36)>:scheduler <- $r14
	#DEBUG_VALUE: execute<S, int &, (lambda at ./new2.cpp:108:59)>:scheduler <- $r14
.Ltmp267:
	.loc	60 0 11 is_stmt 0       # /usr/bin/../lib64/gcc/x86_64-pc-linux-gnu/8.0.0/../../../../include/c++/8.0.0/thread:0:11
	movq	%rax, %rbx
.Ltmp311:
	.loc	61 273 6 is_stmt 1      # /usr/bin/../lib64/gcc/x86_64-pc-linux-gnu/8.0.0/../../../../include/c++/8.0.0/bits/unique_ptr.h:273:6
	movq	16(%rsp), %rdi
.Ltmp312:
	#DEBUG_VALUE: operator():__ptr <- $rdi
	.loc	61 273 12 is_stmt 0     # /usr/bin/../lib64/gcc/x86_64-pc-linux-gnu/8.0.0/../../../../include/c++/8.0.0/bits/unique_ptr.h:273:12
	testq	%rdi, %rdi
.Ltmp313:
	.loc	61 273 6                # /usr/bin/../lib64/gcc/x86_64-pc-linux-gnu/8.0.0/../../../../include/c++/8.0.0/bits/unique_ptr.h:273:6
	jne	.LBB10_8
	jmp	.LBB10_9
.Ltmp314:
.LBB10_10:
	#DEBUG_VALUE: execute<S, int &, (lambda at ./new2.cpp:66:36)>:this <- [DW_OP_stack_value] $rbx
	#DEBUG_VALUE: execute<S, int &, (lambda at ./new2.cpp:108:59)>:this <- $rbx
	#DEBUG_VALUE: execute<S, int &, (lambda at ./new2.cpp:66:36)>:scheduler <- $r14
	#DEBUG_VALUE: execute<S, int &, (lambda at ./new2.cpp:108:59)>:scheduler <- $r14
.Ltmp264:
	.loc	61 0 6                  # /usr/bin/../lib64/gcc/x86_64-pc-linux-gnu/8.0.0/../../../../include/c++/8.0.0/bits/unique_ptr.h:0:6
	movq	%rax, %rbx
.Ltmp315:
	#DEBUG_VALUE: operator==:__y <- 0
	.loc	60 276 26 is_stmt 1     # /usr/bin/../lib64/gcc/x86_64-pc-linux-gnu/8.0.0/../../../../include/c++/8.0.0/thread:276:26
	cmpq	$0, (%rsp)
.Ltmp316:
	.loc	60 134 11               # /usr/bin/../lib64/gcc/x86_64-pc-linux-gnu/8.0.0/../../../../include/c++/8.0.0/thread:134:11
	je	.LBB10_9
.Ltmp317:
.LBB10_5:
	#DEBUG_VALUE: execute<S, int &, (lambda at ./new2.cpp:66:36)>:scheduler <- $r14
	#DEBUG_VALUE: execute<S, int &, (lambda at ./new2.cpp:108:59)>:scheduler <- $r14
	.loc	60 135 2                # /usr/bin/../lib64/gcc/x86_64-pc-linux-gnu/8.0.0/../../../../include/c++/8.0.0/thread:135:2
	callq	_ZSt9terminatev
.Ltmp318:
.LBB10_6:
	#DEBUG_VALUE: thread<(lambda at ./new2.cpp:107:23)>:this <- [$rsp+0]
	#DEBUG_VALUE: execute<S, int &, (lambda at ./new2.cpp:66:36)>:this <- [DW_OP_stack_value] $rbx
	#DEBUG_VALUE: execute<S, int &, (lambda at ./new2.cpp:108:59)>:this <- $rbx
	#DEBUG_VALUE: execute<S, int &, (lambda at ./new2.cpp:66:36)>:scheduler <- $r14
	#DEBUG_VALUE: execute<S, int &, (lambda at ./new2.cpp:108:59)>:scheduler <- $r14
.Ltmp261:
	.loc	60 0 2 is_stmt 0        # /usr/bin/../lib64/gcc/x86_64-pc-linux-gnu/8.0.0/../../../../include/c++/8.0.0/thread:0:2
	movq	%rax, %rbx
.Ltmp319:
	.loc	61 273 6 is_stmt 1      # /usr/bin/../lib64/gcc/x86_64-pc-linux-gnu/8.0.0/../../../../include/c++/8.0.0/bits/unique_ptr.h:273:6
	movq	16(%rsp), %rdi
.Ltmp320:
	#DEBUG_VALUE: operator():__ptr <- $rdi
	.loc	61 273 12 is_stmt 0     # /usr/bin/../lib64/gcc/x86_64-pc-linux-gnu/8.0.0/../../../../include/c++/8.0.0/bits/unique_ptr.h:273:12
	testq	%rdi, %rdi
.Ltmp321:
	.loc	61 273 6                # /usr/bin/../lib64/gcc/x86_64-pc-linux-gnu/8.0.0/../../../../include/c++/8.0.0/bits/unique_ptr.h:273:6
	je	.LBB10_9
.Ltmp322:
.LBB10_8:
	#DEBUG_VALUE: operator():__ptr <- $rdi
	#DEBUG_VALUE: execute<S, int &, (lambda at ./new2.cpp:66:36)>:scheduler <- $r14
	#DEBUG_VALUE: execute<S, int &, (lambda at ./new2.cpp:108:59)>:scheduler <- $r14
	.loc	61 81 2 is_stmt 1       # /usr/bin/../lib64/gcc/x86_64-pc-linux-gnu/8.0.0/../../../../include/c++/8.0.0/bits/unique_ptr.h:81:2
	movq	(%rdi), %rax
	callq	*8(%rax)
.Ltmp323:
.LBB10_9:
	.loc	61 0 2 is_stmt 0        # /usr/bin/../lib64/gcc/x86_64-pc-linux-gnu/8.0.0/../../../../include/c++/8.0.0/bits/unique_ptr.h:0:2
	movq	%rbx, %rdi
	callq	_Unwind_Resume
.Lfunc_end10:
	.size	_ZNSt6thread11_State_implINS_8_InvokerISt5tupleIJZZN8node_andIJ8node_seqIS3_IJS4_I4leafIiZ4mainE3$_0ES5_IiZ4mainE3$_1EES4_IS5_IiZ4mainE3$_2ES5_IiZ4mainE3$_3EES4_IS5_IiZ4mainE3$_4ES5_IiZ4mainE3$_5EEEES5_IS2_IJiiiEEZ4mainE4$_10EES4_IS3_IJS4_IS5_IiZ4mainE3$_6ES5_IiZ4mainE3$_7EES4_IS5_IiZ4mainE3$_8ES5_IiZ4mainE3$_9EEEES5_IS2_IJiiEEZ4mainE4$_11EEEE7executeI1SiZ4mainE4$_12EEvRT_OT0_OT1_ENKUlS19_RS1B_E_clISt17integral_constantImLm1EES14_EEDaS19_S1F_EUlvE_EEEEE6_M_runEv, .Lfunc_end10-_ZNSt6thread11_State_implINS_8_InvokerISt5tupleIJZZN8node_andIJ8node_seqIS3_IJS4_I4leafIiZ4mainE3$_0ES5_IiZ4mainE3$_1EES4_IS5_IiZ4mainE3$_2ES5_IiZ4mainE3$_3EES4_IS5_IiZ4mainE3$_4ES5_IiZ4mainE3$_5EEEES5_IS2_IJiiiEEZ4mainE4$_10EES4_IS3_IJS4_IS5_IiZ4mainE3$_6ES5_IiZ4mainE3$_7EES4_IS5_IiZ4mainE3$_8ES5_IiZ4mainE3$_9EEEES5_IS2_IJiiEEZ4mainE4$_11EEEE7executeI1SiZ4mainE4$_12EEvRT_OT0_OT1_ENKUlS19_RS1B_E_clISt17integral_constantImLm1EES14_EEDaS19_S1F_EUlvE_EEEEE6_M_runEv
	.cfi_endproc
	.section	.gcc_except_table,"a",@progbits
	.p2align	2
GCC_except_table10:
.Lexception2:
	.byte	255                     # @LPStart Encoding = omit
	.byte	255                     # @TType Encoding = omit
	.byte	1                       # Call site Encoding = uleb128
	.uleb128 .Lcst_end2-.Lcst_begin2
.Lcst_begin2:
	.uleb128 .Lfunc_begin10-.Lfunc_begin10 # >> Call Site 1 <<
	.uleb128 .Ltmp259-.Lfunc_begin10 #   Call between .Lfunc_begin10 and .Ltmp259
	.byte	0                       #     has no landing pad
	.byte	0                       #   On action: cleanup
	.uleb128 .Ltmp259-.Lfunc_begin10 # >> Call Site 2 <<
	.uleb128 .Ltmp260-.Ltmp259      #   Call between .Ltmp259 and .Ltmp260
	.uleb128 .Ltmp261-.Lfunc_begin10 #     jumps to .Ltmp261
	.byte	0                       #   On action: cleanup
	.uleb128 .Ltmp260-.Lfunc_begin10 # >> Call Site 3 <<
	.uleb128 .Ltmp262-.Ltmp260      #   Call between .Ltmp260 and .Ltmp262
	.byte	0                       #     has no landing pad
	.byte	0                       #   On action: cleanup
	.uleb128 .Ltmp262-.Lfunc_begin10 # >> Call Site 4 <<
	.uleb128 .Ltmp263-.Ltmp262      #   Call between .Ltmp262 and .Ltmp263
	.uleb128 .Ltmp264-.Lfunc_begin10 #     jumps to .Ltmp264
	.byte	0                       #   On action: cleanup
	.uleb128 .Ltmp263-.Lfunc_begin10 # >> Call Site 5 <<
	.uleb128 .Ltmp265-.Ltmp263      #   Call between .Ltmp263 and .Ltmp265
	.byte	0                       #     has no landing pad
	.byte	0                       #   On action: cleanup
	.uleb128 .Ltmp265-.Lfunc_begin10 # >> Call Site 6 <<
	.uleb128 .Ltmp266-.Ltmp265      #   Call between .Ltmp265 and .Ltmp266
	.uleb128 .Ltmp267-.Lfunc_begin10 #     jumps to .Ltmp267
	.byte	0                       #   On action: cleanup
	.uleb128 .Ltmp266-.Lfunc_begin10 # >> Call Site 7 <<
	.uleb128 .Ltmp268-.Ltmp266      #   Call between .Ltmp266 and .Ltmp268
	.byte	0                       #     has no landing pad
	.byte	0                       #   On action: cleanup
	.uleb128 .Ltmp268-.Lfunc_begin10 # >> Call Site 8 <<
	.uleb128 .Ltmp269-.Ltmp268      #   Call between .Ltmp268 and .Ltmp269
	.uleb128 .Ltmp270-.Lfunc_begin10 #     jumps to .Ltmp270
	.byte	0                       #   On action: cleanup
	.uleb128 .Ltmp269-.Lfunc_begin10 # >> Call Site 9 <<
	.uleb128 .Lfunc_end10-.Ltmp269  #   Call between .Ltmp269 and .Lfunc_end10
	.byte	0                       #     has no landing pad
	.byte	0                       #   On action: cleanup
.Lcst_end2:
	.p2align	2
                                        # -- End function
	.text
	.p2align	4, 0x90         # -- Begin function _ZNSt6thread11_State_implINS_8_InvokerISt5tupleIJZZN8node_andIJ8node_seqI4leafIiZ4mainE3$_6ES5_IiZ4mainE3$_7EES4_IS5_IiZ4mainE3$_8ES5_IiZ4mainE3$_9EEEE7executeI1SRiZNS4_ISG_S5_IS2_IJiiEEZ4mainE4$_11EE7executeISI_SJ_ZZZNS3_IJS4_IS3_IJS4_IS5_IiZ4mainE3$_0ES5_IiZ4mainE3$_1EES4_IS5_IiZ4mainE3$_2ES5_IiZ4mainE3$_3EES4_IS5_IiZ4mainE3$_4ES5_IiZ4mainE3$_5EEEES5_IS2_IJiiiEEZ4mainE4$_10EESN_EE7executeISI_iZ4mainE4$_12EEvRT_OT0_OT1_ENKUlS1C_RS1E_E_clISt17integral_constantImLm1EESN_EEDaS1C_S1I_ENKUlvE_clEvEUlOS1C_E_EEvS1D_S1F_S1H_EUlS1P_E_EEvS1D_S1F_S1H_ENKUlS1C_S1I_E_clIS1L_ImLm0EESA_EES1N_S1C_S1I_EUlvE_EEEEED0Ev
	.type	_ZNSt6thread11_State_implINS_8_InvokerISt5tupleIJZZN8node_andIJ8node_seqI4leafIiZ4mainE3$_6ES5_IiZ4mainE3$_7EES4_IS5_IiZ4mainE3$_8ES5_IiZ4mainE3$_9EEEE7executeI1SRiZNS4_ISG_S5_IS2_IJiiEEZ4mainE4$_11EE7executeISI_SJ_ZZZNS3_IJS4_IS3_IJS4_IS5_IiZ4mainE3$_0ES5_IiZ4mainE3$_1EES4_IS5_IiZ4mainE3$_2ES5_IiZ4mainE3$_3EES4_IS5_IiZ4mainE3$_4ES5_IiZ4mainE3$_5EEEES5_IS2_IJiiiEEZ4mainE4$_10EESN_EE7executeISI_iZ4mainE4$_12EEvRT_OT0_OT1_ENKUlS1C_RS1E_E_clISt17integral_constantImLm1EESN_EEDaS1C_S1I_ENKUlvE_clEvEUlOS1C_E_EEvS1D_S1F_S1H_EUlS1P_E_EEvS1D_S1F_S1H_ENKUlS1C_S1I_E_clIS1L_ImLm0EESA_EES1N_S1C_S1I_EUlvE_EEEEED0Ev,@function
_ZNSt6thread11_State_implINS_8_InvokerISt5tupleIJZZN8node_andIJ8node_seqI4leafIiZ4mainE3$_6ES5_IiZ4mainE3$_7EES4_IS5_IiZ4mainE3$_8ES5_IiZ4mainE3$_9EEEE7executeI1SRiZNS4_ISG_S5_IS2_IJiiEEZ4mainE4$_11EE7executeISI_SJ_ZZZNS3_IJS4_IS3_IJS4_IS5_IiZ4mainE3$_0ES5_IiZ4mainE3$_1EES4_IS5_IiZ4mainE3$_2ES5_IiZ4mainE3$_3EES4_IS5_IiZ4mainE3$_4ES5_IiZ4mainE3$_5EEEES5_IS2_IJiiiEEZ4mainE4$_10EESN_EE7executeISI_iZ4mainE4$_12EEvRT_OT0_OT1_ENKUlS1C_RS1E_E_clISt17integral_constantImLm1EESN_EEDaS1C_S1I_ENKUlvE_clEvEUlOS1C_E_EEvS1D_S1F_S1H_EUlS1P_E_EEvS1D_S1F_S1H_ENKUlS1C_S1I_E_clIS1L_ImLm0EESA_EES1N_S1C_S1I_EUlvE_EEEEED0Ev: # @"_ZNSt6thread11_State_implINS_8_InvokerISt5tupleIJZZN8node_andIJ8node_seqI4leafIiZ4mainE3$_6ES5_IiZ4mainE3$_7EES4_IS5_IiZ4mainE3$_8ES5_IiZ4mainE3$_9EEEE7executeI1SRiZNS4_ISG_S5_IS2_IJiiEEZ4mainE4$_11EE7executeISI_SJ_ZZZNS3_IJS4_IS3_IJS4_IS5_IiZ4mainE3$_0ES5_IiZ4mainE3$_1EES4_IS5_IiZ4mainE3$_2ES5_IiZ4mainE3$_3EES4_IS5_IiZ4mainE3$_4ES5_IiZ4mainE3$_5EEEES5_IS2_IJiiiEEZ4mainE4$_10EESN_EE7executeISI_iZ4mainE4$_12EEvRT_OT0_OT1_ENKUlS1C_RS1E_E_clISt17integral_constantImLm1EESN_EEDaS1C_S1I_ENKUlvE_clEvEUlOS1C_E_EEvS1D_S1F_S1H_EUlS1P_E_EEvS1D_S1F_S1H_ENKUlS1C_S1I_E_clIS1L_ImLm0EESA_EES1N_S1C_S1I_EUlvE_EEEEED0Ev"
.Lfunc_begin11:
	.loc	60 178 0 is_stmt 1      # /usr/bin/../lib64/gcc/x86_64-pc-linux-gnu/8.0.0/../../../../include/c++/8.0.0/thread:178:0
	.cfi_startproc
# %bb.0:
	pushq	%rbx
	.cfi_def_cfa_offset 16
	.cfi_offset %rbx, -16
	#DEBUG_VALUE: ~_State_impl:this <- $rdi
	movq	%rdi, %rbx
.Ltmp324:
	#DEBUG_VALUE: ~_State_impl:this <- $rbx
	.loc	60 178 14 prologue_end  # /usr/bin/../lib64/gcc/x86_64-pc-linux-gnu/8.0.0/../../../../include/c++/8.0.0/thread:178:14
	callq	_ZNSt6thread6_StateD2Ev
	movq	%rbx, %rdi
	popq	%rbx
.Ltmp325:
	jmp	_ZdlPv                  # TAILCALL
.Ltmp326:
.Lfunc_end11:
	.size	_ZNSt6thread11_State_implINS_8_InvokerISt5tupleIJZZN8node_andIJ8node_seqI4leafIiZ4mainE3$_6ES5_IiZ4mainE3$_7EES4_IS5_IiZ4mainE3$_8ES5_IiZ4mainE3$_9EEEE7executeI1SRiZNS4_ISG_S5_IS2_IJiiEEZ4mainE4$_11EE7executeISI_SJ_ZZZNS3_IJS4_IS3_IJS4_IS5_IiZ4mainE3$_0ES5_IiZ4mainE3$_1EES4_IS5_IiZ4mainE3$_2ES5_IiZ4mainE3$_3EES4_IS5_IiZ4mainE3$_4ES5_IiZ4mainE3$_5EEEES5_IS2_IJiiiEEZ4mainE4$_10EESN_EE7executeISI_iZ4mainE4$_12EEvRT_OT0_OT1_ENKUlS1C_RS1E_E_clISt17integral_constantImLm1EESN_EEDaS1C_S1I_ENKUlvE_clEvEUlOS1C_E_EEvS1D_S1F_S1H_EUlS1P_E_EEvS1D_S1F_S1H_ENKUlS1C_S1I_E_clIS1L_ImLm0EESA_EES1N_S1C_S1I_EUlvE_EEEEED0Ev, .Lfunc_end11-_ZNSt6thread11_State_implINS_8_InvokerISt5tupleIJZZN8node_andIJ8node_seqI4leafIiZ4mainE3$_6ES5_IiZ4mainE3$_7EES4_IS5_IiZ4mainE3$_8ES5_IiZ4mainE3$_9EEEE7executeI1SRiZNS4_ISG_S5_IS2_IJiiEEZ4mainE4$_11EE7executeISI_SJ_ZZZNS3_IJS4_IS3_IJS4_IS5_IiZ4mainE3$_0ES5_IiZ4mainE3$_1EES4_IS5_IiZ4mainE3$_2ES5_IiZ4mainE3$_3EES4_IS5_IiZ4mainE3$_4ES5_IiZ4mainE3$_5EEEES5_IS2_IJiiiEEZ4mainE4$_10EESN_EE7executeISI_iZ4mainE4$_12EEvRT_OT0_OT1_ENKUlS1C_RS1E_E_clISt17integral_constantImLm1EESN_EEDaS1C_S1I_ENKUlvE_clEvEUlOS1C_E_EEvS1D_S1F_S1H_EUlS1P_E_EEvS1D_S1F_S1H_ENKUlS1C_S1I_E_clIS1L_ImLm0EESA_EES1N_S1C_S1I_EUlvE_EEEEED0Ev
	.cfi_endproc
                                        # -- End function
	.p2align	4, 0x90         # -- Begin function _ZNSt6thread11_State_implINS_8_InvokerISt5tupleIJZZN8node_andIJ8node_seqI4leafIiZ4mainE3$_6ES5_IiZ4mainE3$_7EES4_IS5_IiZ4mainE3$_8ES5_IiZ4mainE3$_9EEEE7executeI1SRiZNS4_ISG_S5_IS2_IJiiEEZ4mainE4$_11EE7executeISI_SJ_ZZZNS3_IJS4_IS3_IJS4_IS5_IiZ4mainE3$_0ES5_IiZ4mainE3$_1EES4_IS5_IiZ4mainE3$_2ES5_IiZ4mainE3$_3EES4_IS5_IiZ4mainE3$_4ES5_IiZ4mainE3$_5EEEES5_IS2_IJiiiEEZ4mainE4$_10EESN_EE7executeISI_iZ4mainE4$_12EEvRT_OT0_OT1_ENKUlS1C_RS1E_E_clISt17integral_constantImLm1EESN_EEDaS1C_S1I_ENKUlvE_clEvEUlOS1C_E_EEvS1D_S1F_S1H_EUlS1P_E_EEvS1D_S1F_S1H_ENKUlS1C_S1I_E_clIS1L_ImLm0EESA_EES1N_S1C_S1I_EUlvE_EEEEE6_M_runEv
	.type	_ZNSt6thread11_State_implINS_8_InvokerISt5tupleIJZZN8node_andIJ8node_seqI4leafIiZ4mainE3$_6ES5_IiZ4mainE3$_7EES4_IS5_IiZ4mainE3$_8ES5_IiZ4mainE3$_9EEEE7executeI1SRiZNS4_ISG_S5_IS2_IJiiEEZ4mainE4$_11EE7executeISI_SJ_ZZZNS3_IJS4_IS3_IJS4_IS5_IiZ4mainE3$_0ES5_IiZ4mainE3$_1EES4_IS5_IiZ4mainE3$_2ES5_IiZ4mainE3$_3EES4_IS5_IiZ4mainE3$_4ES5_IiZ4mainE3$_5EEEES5_IS2_IJiiiEEZ4mainE4$_10EESN_EE7executeISI_iZ4mainE4$_12EEvRT_OT0_OT1_ENKUlS1C_RS1E_E_clISt17integral_constantImLm1EESN_EEDaS1C_S1I_ENKUlvE_clEvEUlOS1C_E_EEvS1D_S1F_S1H_EUlS1P_E_EEvS1D_S1F_S1H_ENKUlS1C_S1I_E_clIS1L_ImLm0EESA_EES1N_S1C_S1I_EUlvE_EEEEE6_M_runEv,@function
_ZNSt6thread11_State_implINS_8_InvokerISt5tupleIJZZN8node_andIJ8node_seqI4leafIiZ4mainE3$_6ES5_IiZ4mainE3$_7EES4_IS5_IiZ4mainE3$_8ES5_IiZ4mainE3$_9EEEE7executeI1SRiZNS4_ISG_S5_IS2_IJiiEEZ4mainE4$_11EE7executeISI_SJ_ZZZNS3_IJS4_IS3_IJS4_IS5_IiZ4mainE3$_0ES5_IiZ4mainE3$_1EES4_IS5_IiZ4mainE3$_2ES5_IiZ4mainE3$_3EES4_IS5_IiZ4mainE3$_4ES5_IiZ4mainE3$_5EEEES5_IS2_IJiiiEEZ4mainE4$_10EESN_EE7executeISI_iZ4mainE4$_12EEvRT_OT0_OT1_ENKUlS1C_RS1E_E_clISt17integral_constantImLm1EESN_EEDaS1C_S1I_ENKUlvE_clEvEUlOS1C_E_EEvS1D_S1F_S1H_EUlS1P_E_EEvS1D_S1F_S1H_ENKUlS1C_S1I_E_clIS1L_ImLm0EESA_EES1N_S1C_S1I_EUlvE_EEEEE6_M_runEv: # @"_ZNSt6thread11_State_implINS_8_InvokerISt5tupleIJZZN8node_andIJ8node_seqI4leafIiZ4mainE3$_6ES5_IiZ4mainE3$_7EES4_IS5_IiZ4mainE3$_8ES5_IiZ4mainE3$_9EEEE7executeI1SRiZNS4_ISG_S5_IS2_IJiiEEZ4mainE4$_11EE7executeISI_SJ_ZZZNS3_IJS4_IS3_IJS4_IS5_IiZ4mainE3$_0ES5_IiZ4mainE3$_1EES4_IS5_IiZ4mainE3$_2ES5_IiZ4mainE3$_3EES4_IS5_IiZ4mainE3$_4ES5_IiZ4mainE3$_5EEEES5_IS2_IJiiiEEZ4mainE4$_10EESN_EE7executeISI_iZ4mainE4$_12EEvRT_OT0_OT1_ENKUlS1C_RS1E_E_clISt17integral_constantImLm1EESN_EEDaS1C_S1I_ENKUlvE_clEvEUlOS1C_E_EEvS1D_S1F_S1H_EUlS1P_E_EEvS1D_S1F_S1H_ENKUlS1C_S1I_E_clIS1L_ImLm0EESA_EES1N_S1C_S1I_EUlvE_EEEEE6_M_runEv"
.Lfunc_begin12:
	.loc	60 186 0                # /usr/bin/../lib64/gcc/x86_64-pc-linux-gnu/8.0.0/../../../../include/c++/8.0.0/thread:186:0
	.cfi_startproc
# %bb.0:
	pushq	%r15
	.cfi_def_cfa_offset 16
	pushq	%r14
	.cfi_def_cfa_offset 24
	pushq	%rbx
	.cfi_def_cfa_offset 32
	subq	$16, %rsp
	.cfi_def_cfa_offset 48
	.cfi_offset %rbx, -32
	.cfi_offset %r14, -24
	.cfi_offset %r15, -16
	#DEBUG_VALUE: _M_run:this <- $rdi
.Ltmp327:
	#DEBUG_VALUE: operator():this <- [DW_OP_plus_uconst 8, DW_OP_stack_value] $rdi
	#DEBUG_VALUE: _M_invoke<0>:this <- [DW_OP_plus_uconst 8, DW_OP_stack_value] $rdi
	#DEBUG_VALUE: __invoke<(lambda at ./new2.cpp:107:23)>:__fn <- [DW_OP_plus_uconst 8, DW_OP_stack_value] $rdi
	#DEBUG_VALUE: __invoke_impl<void, (lambda at ./new2.cpp:107:23)>:__f <- [DW_OP_plus_uconst 8, DW_OP_stack_value] $rdi
	#DEBUG_VALUE: operator():this <- [DW_OP_plus_uconst 8, DW_OP_stack_value] $rdi
	#DEBUG_VALUE: execute<S, int &, (lambda at ./new2.cpp:108:59)>:this <- [DW_OP_plus_uconst 8, DW_OP_plus_uconst 48, DW_OP_deref, DW_OP_stack_value] $rdi
	#DEBUG_VALUE: execute<S, int &, (lambda at ./new2.cpp:108:59)>:scheduler <- [DW_OP_plus_uconst 8, DW_OP_plus_uconst 56, DW_OP_deref, DW_OP_stack_value] $rdi
	#DEBUG_VALUE: execute<S, std::tuple<int, int> &, const (lambda at ./new2.cpp:108:59) &>:then <- [DW_OP_plus_uconst 8, DW_OP_plus_uconst 16, DW_OP_stack_value] $rdi
	movq	%rdi, %r14
.Ltmp328:
	#DEBUG_VALUE: execute<S, std::tuple<int, int> &, const (lambda at ./new2.cpp:108:59) &>:then <- [DW_OP_plus_uconst 8, DW_OP_plus_uconst 16, DW_OP_stack_value] $r14
	movq	48(%rdi), %rbx
.Ltmp329:
	#DEBUG_VALUE: operator(): <- 0
	#DEBUG_VALUE: get<0, int, int>:__t <- [DW_OP_plus_uconst 8, DW_OP_stack_value] $rbx
	#DEBUG_VALUE: __get_helper<0, int, int>:__t <- [DW_OP_plus_uconst 8, DW_OP_stack_value] $rbx
	#DEBUG_VALUE: _M_head:__t <- [DW_OP_plus_uconst 8, DW_OP_stack_value] $rbx
	#DEBUG_VALUE: _M_head:__b <- [DW_OP_plus_uconst 8, DW_OP_plus_uconst 4, DW_OP_stack_value] $rbx
	#DEBUG_VALUE: operator()<std::tuple<int, int> &>:out <- [DW_OP_plus_uconst 8, DW_OP_stack_value] $rbx
	#DEBUG_VALUE: execute<S, std::tuple<int, int> &, const (lambda at ./new2.cpp:108:59) &>:input <- [DW_OP_plus_uconst 8, DW_OP_stack_value] $rbx
	#DEBUG_VALUE: operator()<std::tuple<int, int> >:t <- [DW_OP_plus_uconst 8, DW_OP_stack_value] $rbx
	#DEBUG_VALUE: get<1, int, int>:__t <- [DW_OP_plus_uconst 8, DW_OP_stack_value] $rbx
	#DEBUG_VALUE: __get_helper<1, int>:__t <- [DW_OP_plus_uconst 8, DW_OP_stack_value] $rbx
	#DEBUG_VALUE: _M_head:__t <- [DW_OP_plus_uconst 8, DW_OP_stack_value] $rbx
	#DEBUG_VALUE: _M_head:__b <- [DW_OP_plus_uconst 8, DW_OP_stack_value] $rbx
	#DEBUG_VALUE: execute<S, int &, (lambda at ./new2.cpp:108:59)>:scheduler <- [DW_OP_plus_uconst 8, DW_OP_plus_uconst 56, DW_OP_deref, DW_OP_stack_value] $r14
	#DEBUG_VALUE: execute<S, int &, (lambda at ./new2.cpp:108:59)>:this <- [DW_OP_plus_uconst 8, DW_OP_plus_uconst 48, DW_OP_deref, DW_OP_stack_value] $r14
	#DEBUG_VALUE: operator():this <- [DW_OP_plus_uconst 8, DW_OP_stack_value] $r14
	#DEBUG_VALUE: __invoke_impl<void, (lambda at ./new2.cpp:107:23)>:__f <- [DW_OP_plus_uconst 8, DW_OP_stack_value] $r14
	#DEBUG_VALUE: __invoke<(lambda at ./new2.cpp:107:23)>:__fn <- [DW_OP_plus_uconst 8, DW_OP_stack_value] $r14
	#DEBUG_VALUE: _M_invoke<0>:this <- [DW_OP_plus_uconst 8, DW_OP_stack_value] $r14
	#DEBUG_VALUE: operator():this <- [DW_OP_plus_uconst 8, DW_OP_stack_value] $r14
	#DEBUG_VALUE: _M_run:this <- $r14
	.loc	67 561 2 prologue_end   # /usr/bin/../lib64/gcc/x86_64-pc-linux-gnu/8.0.0/../../../../include/c++/8.0.0/ostream:561:2
	movl	$_ZSt4cout, %edi
	movl	$.L.str.9, %esi
.Ltmp330:
	#DEBUG_VALUE: operator<<<std::char_traits<char> >:__s <- $rsi
	movl	$3, %edx
	callq	_ZSt16__ostream_insertIcSt11char_traitsIcEERSt13basic_ostreamIT_T0_ES6_PKS3_l
.Ltmp331:
	#DEBUG_VALUE: operator():x <- 6
	#DEBUG_VALUE: operator<<<std::char_traits<char> >:__out <- undef
	.loc	67 561 2 is_stmt 0      # /usr/bin/../lib64/gcc/x86_64-pc-linux-gnu/8.0.0/../../../../include/c++/8.0.0/ostream:561:2
	movl	$_ZSt4cout, %edi
	movl	$.L.str.1, %esi
.Ltmp332:
	#DEBUG_VALUE: operator<<<std::char_traits<char> >:__s <- $rsi
	movl	$1, %edx
	callq	_ZSt16__ostream_insertIcSt11char_traitsIcEERSt13basic_ostreamIT_T0_ES6_PKS3_l
.Ltmp333:
	.loc	4 164 39 is_stmt 1      # ./new2.cpp:164:39
	movl	$_ZSt4cout, %edi
.Ltmp334:
	#DEBUG_VALUE: operator<<<std::char_traits<char> >:__out <- $rdi
	movl	$6, %esi
	callq	_ZNSolsEi
.Ltmp335:
	#DEBUG_VALUE: operator<<<std::char_traits<char> >:__out <- $rax
	.loc	67 561 2                # /usr/bin/../lib64/gcc/x86_64-pc-linux-gnu/8.0.0/../../../../include/c++/8.0.0/ostream:561:2
	movl	$.L.str.8, %esi
.Ltmp336:
	#DEBUG_VALUE: operator<<<std::char_traits<char> >:__s <- $rsi
	movl	$5, %edx
	movq	%rax, %rdi
	callq	_ZSt16__ostream_insertIcSt11char_traitsIcEERSt13basic_ostreamIT_T0_ES6_PKS3_l
.Ltmp337:
	.loc	4 109 42                # ./new2.cpp:109:42
	movl	$7, 12(%rbx)
.Ltmp338:
	#DEBUG_VALUE: fetch_sub:__m <- 5
	#DEBUG_VALUE: fetch_sub:__i <- 1
	#DEBUG_VALUE: fetch_sub:this <- [DW_OP_stack_value] $rbx
	.loc	13 524 16               # /usr/bin/../lib64/gcc/x86_64-pc-linux-gnu/8.0.0/../../../../include/c++/8.0.0/bits/atomic_base.h:524:16
	lock		subl	$1, (%rbx)
.Ltmp339:
	.loc	4 111 24                # ./new2.cpp:111:24
	jne	.LBB12_2
.Ltmp340:
# %bb.1:
	#DEBUG_VALUE: _M_run:this <- $r14
	#DEBUG_VALUE: operator():this <- [DW_OP_plus_uconst 8, DW_OP_stack_value] $r14
	#DEBUG_VALUE: _M_invoke<0>:this <- [DW_OP_plus_uconst 8, DW_OP_stack_value] $r14
	#DEBUG_VALUE: __invoke<(lambda at ./new2.cpp:107:23)>:__fn <- [DW_OP_plus_uconst 8, DW_OP_stack_value] $r14
	#DEBUG_VALUE: __invoke_impl<void, (lambda at ./new2.cpp:107:23)>:__f <- [DW_OP_plus_uconst 8, DW_OP_stack_value] $r14
	#DEBUG_VALUE: operator():this <- [DW_OP_plus_uconst 8, DW_OP_stack_value] $r14
	#DEBUG_VALUE: execute<S, int &, (lambda at ./new2.cpp:108:59)>:this <- [DW_OP_plus_uconst 8, DW_OP_plus_uconst 48, DW_OP_deref, DW_OP_stack_value] $r14
	#DEBUG_VALUE: execute<S, int &, (lambda at ./new2.cpp:108:59)>:scheduler <- [DW_OP_plus_uconst 8, DW_OP_plus_uconst 56, DW_OP_deref, DW_OP_stack_value] $r14
	#DEBUG_VALUE: operator()<std::tuple<int, int> >:t <- [DW_OP_plus_uconst 8, DW_OP_stack_value] $rbx
	#DEBUG_VALUE: execute<S, std::tuple<int, int> &, const (lambda at ./new2.cpp:108:59) &>:input <- [DW_OP_plus_uconst 8, DW_OP_stack_value] $rbx
	#DEBUG_VALUE: operator()<std::tuple<int, int> &>:out <- [DW_OP_plus_uconst 8, DW_OP_stack_value] $rbx
	#DEBUG_VALUE: execute<S, std::tuple<int, int> &, const (lambda at ./new2.cpp:108:59) &>:then <- [DW_OP_plus_uconst 8, DW_OP_plus_uconst 16, DW_OP_stack_value] $r14
	.loc	4 191 26                # ./new2.cpp:191:26
	movl	12(%rbx), %esi
	.loc	4 191 23 is_stmt 0      # ./new2.cpp:191:23
	movl	$_ZSt4cout, %edi
	callq	_ZNSolsEi
	movq	%rax, %r15
.Ltmp341:
	#DEBUG_VALUE: operator<<<std::char_traits<char> >:__out <- $r15
	.loc	67 561 2 is_stmt 1      # /usr/bin/../lib64/gcc/x86_64-pc-linux-gnu/8.0.0/../../../../include/c++/8.0.0/ostream:561:2
	movl	$.L.str, %esi
.Ltmp342:
	#DEBUG_VALUE: operator<<<std::char_traits<char> >:__s <- $rsi
	movl	$2, %edx
	movq	%rax, %rdi
	callq	_ZSt16__ostream_insertIcSt11char_traitsIcEERSt13basic_ostreamIT_T0_ES6_PKS3_l
.Ltmp343:
	.loc	4 191 52                # ./new2.cpp:191:52
	movl	8(%rbx), %esi
	.loc	4 191 49 is_stmt 0      # ./new2.cpp:191:49
	movq	%r15, %rdi
	callq	_ZNSolsEi
	movb	$10, 15(%rsp)
.Ltmp344:
	#DEBUG_VALUE: operator<<<std::char_traits<char> >:__c <- 10
	#DEBUG_VALUE: operator<<<std::char_traits<char> >:__out <- $rax
	.loc	4 0 49                  # ./new2.cpp:0:49
	leaq	15(%rsp), %rsi
.Ltmp345:
	#DEBUG_VALUE: operator<<<std::char_traits<char> >:__c <- [DW_OP_plus_uconst 15] [$rsp+0]
	.loc	67 509 14 is_stmt 1     # /usr/bin/../lib64/gcc/x86_64-pc-linux-gnu/8.0.0/../../../../include/c++/8.0.0/ostream:509:14
	movl	$1, %edx
	movq	%rax, %rdi
	callq	_ZSt16__ostream_insertIcSt11char_traitsIcEERSt13basic_ostreamIT_T0_ES6_PKS3_l
.Ltmp346:
	.loc	67 0 14 is_stmt 0       # /usr/bin/../lib64/gcc/x86_64-pc-linux-gnu/8.0.0/../../../../include/c++/8.0.0/ostream:0:14
	movq	24(%r14), %rax
.Ltmp347:
	#DEBUG_VALUE: _M_head:__b <- [DW_OP_plus_uconst 44, DW_OP_stack_value] $rax
	#DEBUG_VALUE: _M_head:__t <- [DW_OP_plus_uconst 44, DW_OP_stack_value] $rax
	#DEBUG_VALUE: __get_helper<1, int>:__t <- [DW_OP_plus_uconst 44, DW_OP_stack_value] $rax
	#DEBUG_VALUE: get<1, int, int>:__t <- [DW_OP_plus_uconst 44, DW_OP_stack_value] $rax
	.loc	4 109 42 is_stmt 1      # ./new2.cpp:109:42
	movl	$-1, 44(%rax)
.Ltmp348:
	#DEBUG_VALUE: fetch_sub:__m <- 5
	#DEBUG_VALUE: fetch_sub:__i <- 1
	#DEBUG_VALUE: fetch_sub:this <- [DW_OP_plus_uconst 36, DW_OP_stack_value] $rax
	.loc	13 524 16               # /usr/bin/../lib64/gcc/x86_64-pc-linux-gnu/8.0.0/../../../../include/c++/8.0.0/bits/atomic_base.h:524:16
	lock		subl	$1, 36(%rax)
.Ltmp349:
.LBB12_2:
	#DEBUG_VALUE: _M_run:this <- $r14
	.loc	60 186 24               # /usr/bin/../lib64/gcc/x86_64-pc-linux-gnu/8.0.0/../../../../include/c++/8.0.0/thread:186:24
	addq	$16, %rsp
	popq	%rbx
	popq	%r14
.Ltmp350:
	popq	%r15
	retq
.Ltmp351:
.Lfunc_end12:
	.size	_ZNSt6thread11_State_implINS_8_InvokerISt5tupleIJZZN8node_andIJ8node_seqI4leafIiZ4mainE3$_6ES5_IiZ4mainE3$_7EES4_IS5_IiZ4mainE3$_8ES5_IiZ4mainE3$_9EEEE7executeI1SRiZNS4_ISG_S5_IS2_IJiiEEZ4mainE4$_11EE7executeISI_SJ_ZZZNS3_IJS4_IS3_IJS4_IS5_IiZ4mainE3$_0ES5_IiZ4mainE3$_1EES4_IS5_IiZ4mainE3$_2ES5_IiZ4mainE3$_3EES4_IS5_IiZ4mainE3$_4ES5_IiZ4mainE3$_5EEEES5_IS2_IJiiiEEZ4mainE4$_10EESN_EE7executeISI_iZ4mainE4$_12EEvRT_OT0_OT1_ENKUlS1C_RS1E_E_clISt17integral_constantImLm1EESN_EEDaS1C_S1I_ENKUlvE_clEvEUlOS1C_E_EEvS1D_S1F_S1H_EUlS1P_E_EEvS1D_S1F_S1H_ENKUlS1C_S1I_E_clIS1L_ImLm0EESA_EES1N_S1C_S1I_EUlvE_EEEEE6_M_runEv, .Lfunc_end12-_ZNSt6thread11_State_implINS_8_InvokerISt5tupleIJZZN8node_andIJ8node_seqI4leafIiZ4mainE3$_6ES5_IiZ4mainE3$_7EES4_IS5_IiZ4mainE3$_8ES5_IiZ4mainE3$_9EEEE7executeI1SRiZNS4_ISG_S5_IS2_IJiiEEZ4mainE4$_11EE7executeISI_SJ_ZZZNS3_IJS4_IS3_IJS4_IS5_IiZ4mainE3$_0ES5_IiZ4mainE3$_1EES4_IS5_IiZ4mainE3$_2ES5_IiZ4mainE3$_3EES4_IS5_IiZ4mainE3$_4ES5_IiZ4mainE3$_5EEEES5_IS2_IJiiiEEZ4mainE4$_10EESN_EE7executeISI_iZ4mainE4$_12EEvRT_OT0_OT1_ENKUlS1C_RS1E_E_clISt17integral_constantImLm1EESN_EEDaS1C_S1I_ENKUlvE_clEvEUlOS1C_E_EEvS1D_S1F_S1H_EUlS1P_E_EEvS1D_S1F_S1H_ENKUlS1C_S1I_E_clIS1L_ImLm0EESA_EES1N_S1C_S1I_EUlvE_EEEEE6_M_runEv
	.cfi_endproc
                                        # -- End function
	.p2align	4, 0x90         # -- Begin function _ZNSt6thread11_State_implINS_8_InvokerISt5tupleIJZZN8node_andIJ8node_seqI4leafIiZ4mainE3$_6ES5_IiZ4mainE3$_7EES4_IS5_IiZ4mainE3$_8ES5_IiZ4mainE3$_9EEEE7executeI1SRiZNS4_ISG_S5_IS2_IJiiEEZ4mainE4$_11EE7executeISI_SJ_ZZZNS3_IJS4_IS3_IJS4_IS5_IiZ4mainE3$_0ES5_IiZ4mainE3$_1EES4_IS5_IiZ4mainE3$_2ES5_IiZ4mainE3$_3EES4_IS5_IiZ4mainE3$_4ES5_IiZ4mainE3$_5EEEES5_IS2_IJiiiEEZ4mainE4$_10EESN_EE7executeISI_iZ4mainE4$_12EEvRT_OT0_OT1_ENKUlS1C_RS1E_E_clISt17integral_constantImLm1EESN_EEDaS1C_S1I_ENKUlvE_clEvEUlOS1C_E_EEvS1D_S1F_S1H_EUlS1P_E_EEvS1D_S1F_S1H_ENKUlS1C_S1I_E_clIS1M_SF_EES1N_S1C_S1I_EUlvE_EEEEED0Ev
	.type	_ZNSt6thread11_State_implINS_8_InvokerISt5tupleIJZZN8node_andIJ8node_seqI4leafIiZ4mainE3$_6ES5_IiZ4mainE3$_7EES4_IS5_IiZ4mainE3$_8ES5_IiZ4mainE3$_9EEEE7executeI1SRiZNS4_ISG_S5_IS2_IJiiEEZ4mainE4$_11EE7executeISI_SJ_ZZZNS3_IJS4_IS3_IJS4_IS5_IiZ4mainE3$_0ES5_IiZ4mainE3$_1EES4_IS5_IiZ4mainE3$_2ES5_IiZ4mainE3$_3EES4_IS5_IiZ4mainE3$_4ES5_IiZ4mainE3$_5EEEES5_IS2_IJiiiEEZ4mainE4$_10EESN_EE7executeISI_iZ4mainE4$_12EEvRT_OT0_OT1_ENKUlS1C_RS1E_E_clISt17integral_constantImLm1EESN_EEDaS1C_S1I_ENKUlvE_clEvEUlOS1C_E_EEvS1D_S1F_S1H_EUlS1P_E_EEvS1D_S1F_S1H_ENKUlS1C_S1I_E_clIS1M_SF_EES1N_S1C_S1I_EUlvE_EEEEED0Ev,@function
_ZNSt6thread11_State_implINS_8_InvokerISt5tupleIJZZN8node_andIJ8node_seqI4leafIiZ4mainE3$_6ES5_IiZ4mainE3$_7EES4_IS5_IiZ4mainE3$_8ES5_IiZ4mainE3$_9EEEE7executeI1SRiZNS4_ISG_S5_IS2_IJiiEEZ4mainE4$_11EE7executeISI_SJ_ZZZNS3_IJS4_IS3_IJS4_IS5_IiZ4mainE3$_0ES5_IiZ4mainE3$_1EES4_IS5_IiZ4mainE3$_2ES5_IiZ4mainE3$_3EES4_IS5_IiZ4mainE3$_4ES5_IiZ4mainE3$_5EEEES5_IS2_IJiiiEEZ4mainE4$_10EESN_EE7executeISI_iZ4mainE4$_12EEvRT_OT0_OT1_ENKUlS1C_RS1E_E_clISt17integral_constantImLm1EESN_EEDaS1C_S1I_ENKUlvE_clEvEUlOS1C_E_EEvS1D_S1F_S1H_EUlS1P_E_EEvS1D_S1F_S1H_ENKUlS1C_S1I_E_clIS1M_SF_EES1N_S1C_S1I_EUlvE_EEEEED0Ev: # @"_ZNSt6thread11_State_implINS_8_InvokerISt5tupleIJZZN8node_andIJ8node_seqI4leafIiZ4mainE3$_6ES5_IiZ4mainE3$_7EES4_IS5_IiZ4mainE3$_8ES5_IiZ4mainE3$_9EEEE7executeI1SRiZNS4_ISG_S5_IS2_IJiiEEZ4mainE4$_11EE7executeISI_SJ_ZZZNS3_IJS4_IS3_IJS4_IS5_IiZ4mainE3$_0ES5_IiZ4mainE3$_1EES4_IS5_IiZ4mainE3$_2ES5_IiZ4mainE3$_3EES4_IS5_IiZ4mainE3$_4ES5_IiZ4mainE3$_5EEEES5_IS2_IJiiiEEZ4mainE4$_10EESN_EE7executeISI_iZ4mainE4$_12EEvRT_OT0_OT1_ENKUlS1C_RS1E_E_clISt17integral_constantImLm1EESN_EEDaS1C_S1I_ENKUlvE_clEvEUlOS1C_E_EEvS1D_S1F_S1H_EUlS1P_E_EEvS1D_S1F_S1H_ENKUlS1C_S1I_E_clIS1M_SF_EES1N_S1C_S1I_EUlvE_EEEEED0Ev"
.Lfunc_begin13:
	.loc	60 178 0                # /usr/bin/../lib64/gcc/x86_64-pc-linux-gnu/8.0.0/../../../../include/c++/8.0.0/thread:178:0
	.cfi_startproc
# %bb.0:
	pushq	%rbx
	.cfi_def_cfa_offset 16
	.cfi_offset %rbx, -16
	#DEBUG_VALUE: ~_State_impl:this <- $rdi
	movq	%rdi, %rbx
.Ltmp352:
	#DEBUG_VALUE: ~_State_impl:this <- $rbx
	.loc	60 178 14 prologue_end  # /usr/bin/../lib64/gcc/x86_64-pc-linux-gnu/8.0.0/../../../../include/c++/8.0.0/thread:178:14
	callq	_ZNSt6thread6_StateD2Ev
	movq	%rbx, %rdi
	popq	%rbx
.Ltmp353:
	jmp	_ZdlPv                  # TAILCALL
.Ltmp354:
.Lfunc_end13:
	.size	_ZNSt6thread11_State_implINS_8_InvokerISt5tupleIJZZN8node_andIJ8node_seqI4leafIiZ4mainE3$_6ES5_IiZ4mainE3$_7EES4_IS5_IiZ4mainE3$_8ES5_IiZ4mainE3$_9EEEE7executeI1SRiZNS4_ISG_S5_IS2_IJiiEEZ4mainE4$_11EE7executeISI_SJ_ZZZNS3_IJS4_IS3_IJS4_IS5_IiZ4mainE3$_0ES5_IiZ4mainE3$_1EES4_IS5_IiZ4mainE3$_2ES5_IiZ4mainE3$_3EES4_IS5_IiZ4mainE3$_4ES5_IiZ4mainE3$_5EEEES5_IS2_IJiiiEEZ4mainE4$_10EESN_EE7executeISI_iZ4mainE4$_12EEvRT_OT0_OT1_ENKUlS1C_RS1E_E_clISt17integral_constantImLm1EESN_EEDaS1C_S1I_ENKUlvE_clEvEUlOS1C_E_EEvS1D_S1F_S1H_EUlS1P_E_EEvS1D_S1F_S1H_ENKUlS1C_S1I_E_clIS1M_SF_EES1N_S1C_S1I_EUlvE_EEEEED0Ev, .Lfunc_end13-_ZNSt6thread11_State_implINS_8_InvokerISt5tupleIJZZN8node_andIJ8node_seqI4leafIiZ4mainE3$_6ES5_IiZ4mainE3$_7EES4_IS5_IiZ4mainE3$_8ES5_IiZ4mainE3$_9EEEE7executeI1SRiZNS4_ISG_S5_IS2_IJiiEEZ4mainE4$_11EE7executeISI_SJ_ZZZNS3_IJS4_IS3_IJS4_IS5_IiZ4mainE3$_0ES5_IiZ4mainE3$_1EES4_IS5_IiZ4mainE3$_2ES5_IiZ4mainE3$_3EES4_IS5_IiZ4mainE3$_4ES5_IiZ4mainE3$_5EEEES5_IS2_IJiiiEEZ4mainE4$_10EESN_EE7executeISI_iZ4mainE4$_12EEvRT_OT0_OT1_ENKUlS1C_RS1E_E_clISt17integral_constantImLm1EESN_EEDaS1C_S1I_ENKUlvE_clEvEUlOS1C_E_EEvS1D_S1F_S1H_EUlS1P_E_EEvS1D_S1F_S1H_ENKUlS1C_S1I_E_clIS1M_SF_EES1N_S1C_S1I_EUlvE_EEEEED0Ev
	.cfi_endproc
                                        # -- End function
	.p2align	4, 0x90         # -- Begin function _ZNSt6thread11_State_implINS_8_InvokerISt5tupleIJZZN8node_andIJ8node_seqI4leafIiZ4mainE3$_6ES5_IiZ4mainE3$_7EES4_IS5_IiZ4mainE3$_8ES5_IiZ4mainE3$_9EEEE7executeI1SRiZNS4_ISG_S5_IS2_IJiiEEZ4mainE4$_11EE7executeISI_SJ_ZZZNS3_IJS4_IS3_IJS4_IS5_IiZ4mainE3$_0ES5_IiZ4mainE3$_1EES4_IS5_IiZ4mainE3$_2ES5_IiZ4mainE3$_3EES4_IS5_IiZ4mainE3$_4ES5_IiZ4mainE3$_5EEEES5_IS2_IJiiiEEZ4mainE4$_10EESN_EE7executeISI_iZ4mainE4$_12EEvRT_OT0_OT1_ENKUlS1C_RS1E_E_clISt17integral_constantImLm1EESN_EEDaS1C_S1I_ENKUlvE_clEvEUlOS1C_E_EEvS1D_S1F_S1H_EUlS1P_E_EEvS1D_S1F_S1H_ENKUlS1C_S1I_E_clIS1M_SF_EES1N_S1C_S1I_EUlvE_EEEEE6_M_runEv
	.type	_ZNSt6thread11_State_implINS_8_InvokerISt5tupleIJZZN8node_andIJ8node_seqI4leafIiZ4mainE3$_6ES5_IiZ4mainE3$_7EES4_IS5_IiZ4mainE3$_8ES5_IiZ4mainE3$_9EEEE7executeI1SRiZNS4_ISG_S5_IS2_IJiiEEZ4mainE4$_11EE7executeISI_SJ_ZZZNS3_IJS4_IS3_IJS4_IS5_IiZ4mainE3$_0ES5_IiZ4mainE3$_1EES4_IS5_IiZ4mainE3$_2ES5_IiZ4mainE3$_3EES4_IS5_IiZ4mainE3$_4ES5_IiZ4mainE3$_5EEEES5_IS2_IJiiiEEZ4mainE4$_10EESN_EE7executeISI_iZ4mainE4$_12EEvRT_OT0_OT1_ENKUlS1C_RS1E_E_clISt17integral_constantImLm1EESN_EEDaS1C_S1I_ENKUlvE_clEvEUlOS1C_E_EEvS1D_S1F_S1H_EUlS1P_E_EEvS1D_S1F_S1H_ENKUlS1C_S1I_E_clIS1M_SF_EES1N_S1C_S1I_EUlvE_EEEEE6_M_runEv,@function
_ZNSt6thread11_State_implINS_8_InvokerISt5tupleIJZZN8node_andIJ8node_seqI4leafIiZ4mainE3$_6ES5_IiZ4mainE3$_7EES4_IS5_IiZ4mainE3$_8ES5_IiZ4mainE3$_9EEEE7executeI1SRiZNS4_ISG_S5_IS2_IJiiEEZ4mainE4$_11EE7executeISI_SJ_ZZZNS3_IJS4_IS3_IJS4_IS5_IiZ4mainE3$_0ES5_IiZ4mainE3$_1EES4_IS5_IiZ4mainE3$_2ES5_IiZ4mainE3$_3EES4_IS5_IiZ4mainE3$_4ES5_IiZ4mainE3$_5EEEES5_IS2_IJiiiEEZ4mainE4$_10EESN_EE7executeISI_iZ4mainE4$_12EEvRT_OT0_OT1_ENKUlS1C_RS1E_E_clISt17integral_constantImLm1EESN_EEDaS1C_S1I_ENKUlvE_clEvEUlOS1C_E_EEvS1D_S1F_S1H_EUlS1P_E_EEvS1D_S1F_S1H_ENKUlS1C_S1I_E_clIS1M_SF_EES1N_S1C_S1I_EUlvE_EEEEE6_M_runEv: # @"_ZNSt6thread11_State_implINS_8_InvokerISt5tupleIJZZN8node_andIJ8node_seqI4leafIiZ4mainE3$_6ES5_IiZ4mainE3$_7EES4_IS5_IiZ4mainE3$_8ES5_IiZ4mainE3$_9EEEE7executeI1SRiZNS4_ISG_S5_IS2_IJiiEEZ4mainE4$_11EE7executeISI_SJ_ZZZNS3_IJS4_IS3_IJS4_IS5_IiZ4mainE3$_0ES5_IiZ4mainE3$_1EES4_IS5_IiZ4mainE3$_2ES5_IiZ4mainE3$_3EES4_IS5_IiZ4mainE3$_4ES5_IiZ4mainE3$_5EEEES5_IS2_IJiiiEEZ4mainE4$_10EESN_EE7executeISI_iZ4mainE4$_12EEvRT_OT0_OT1_ENKUlS1C_RS1E_E_clISt17integral_constantImLm1EESN_EEDaS1C_S1I_ENKUlvE_clEvEUlOS1C_E_EEvS1D_S1F_S1H_EUlS1P_E_EEvS1D_S1F_S1H_ENKUlS1C_S1I_E_clIS1M_SF_EES1N_S1C_S1I_EUlvE_EEEEE6_M_runEv"
.Lfunc_begin14:
	.loc	60 186 0                # /usr/bin/../lib64/gcc/x86_64-pc-linux-gnu/8.0.0/../../../../include/c++/8.0.0/thread:186:0
	.cfi_startproc
# %bb.0:
	pushq	%r15
	.cfi_def_cfa_offset 16
	pushq	%r14
	.cfi_def_cfa_offset 24
	pushq	%rbx
	.cfi_def_cfa_offset 32
	subq	$16, %rsp
	.cfi_def_cfa_offset 48
	.cfi_offset %rbx, -32
	.cfi_offset %r14, -24
	.cfi_offset %r15, -16
	#DEBUG_VALUE: _M_run:this <- $rdi
.Ltmp355:
	#DEBUG_VALUE: operator():this <- [DW_OP_plus_uconst 8, DW_OP_stack_value] $rdi
	#DEBUG_VALUE: _M_invoke<0>:this <- [DW_OP_plus_uconst 8, DW_OP_stack_value] $rdi
	#DEBUG_VALUE: __invoke<(lambda at ./new2.cpp:107:23)>:__fn <- [DW_OP_plus_uconst 8, DW_OP_stack_value] $rdi
	#DEBUG_VALUE: __invoke_impl<void, (lambda at ./new2.cpp:107:23)>:__f <- [DW_OP_plus_uconst 8, DW_OP_stack_value] $rdi
	#DEBUG_VALUE: operator():this <- [DW_OP_plus_uconst 8, DW_OP_stack_value] $rdi
	#DEBUG_VALUE: execute<S, int &, (lambda at ./new2.cpp:108:59)>:this <- [DW_OP_plus_uconst 8, DW_OP_plus_uconst 48, DW_OP_deref, DW_OP_stack_value] $rdi
	#DEBUG_VALUE: execute<S, int &, (lambda at ./new2.cpp:108:59)>:scheduler <- [DW_OP_plus_uconst 8, DW_OP_plus_uconst 56, DW_OP_deref, DW_OP_stack_value] $rdi
	#DEBUG_VALUE: execute<S, std::tuple<int, int> &, const (lambda at ./new2.cpp:108:59) &>:then <- [DW_OP_plus_uconst 8, DW_OP_plus_uconst 16, DW_OP_stack_value] $rdi
	movq	%rdi, %r14
.Ltmp356:
	#DEBUG_VALUE: execute<S, std::tuple<int, int> &, const (lambda at ./new2.cpp:108:59) &>:then <- [DW_OP_plus_uconst 8, DW_OP_plus_uconst 16, DW_OP_stack_value] $r14
	movq	48(%rdi), %rbx
.Ltmp357:
	#DEBUG_VALUE: operator(): <- 0
	#DEBUG_VALUE: get<1, int, int>:__t <- [DW_OP_plus_uconst 8, DW_OP_stack_value] $rbx
	#DEBUG_VALUE: __get_helper<1, int>:__t <- [DW_OP_plus_uconst 8, DW_OP_stack_value] $rbx
	#DEBUG_VALUE: _M_head:__t <- [DW_OP_plus_uconst 8, DW_OP_stack_value] $rbx
	#DEBUG_VALUE: _M_head:__b <- [DW_OP_plus_uconst 8, DW_OP_stack_value] $rbx
	#DEBUG_VALUE: operator()<std::tuple<int, int> &>:out <- [DW_OP_plus_uconst 8, DW_OP_stack_value] $rbx
	#DEBUG_VALUE: execute<S, std::tuple<int, int> &, const (lambda at ./new2.cpp:108:59) &>:input <- [DW_OP_plus_uconst 8, DW_OP_stack_value] $rbx
	#DEBUG_VALUE: operator()<std::tuple<int, int> >:t <- [DW_OP_plus_uconst 8, DW_OP_stack_value] $rbx
	#DEBUG_VALUE: get<0, int, int>:__t <- [DW_OP_plus_uconst 8, DW_OP_stack_value] $rbx
	#DEBUG_VALUE: __get_helper<0, int, int>:__t <- [DW_OP_plus_uconst 8, DW_OP_stack_value] $rbx
	#DEBUG_VALUE: _M_head:__t <- [DW_OP_plus_uconst 8, DW_OP_stack_value] $rbx
	#DEBUG_VALUE: _M_head:__b <- [DW_OP_plus_uconst 8, DW_OP_plus_uconst 4, DW_OP_stack_value] $rbx
	#DEBUG_VALUE: execute<S, int &, (lambda at ./new2.cpp:108:59)>:scheduler <- [DW_OP_plus_uconst 8, DW_OP_plus_uconst 56, DW_OP_deref, DW_OP_stack_value] $r14
	#DEBUG_VALUE: execute<S, int &, (lambda at ./new2.cpp:108:59)>:this <- [DW_OP_plus_uconst 8, DW_OP_plus_uconst 48, DW_OP_deref, DW_OP_stack_value] $r14
	#DEBUG_VALUE: operator():this <- [DW_OP_plus_uconst 8, DW_OP_stack_value] $r14
	#DEBUG_VALUE: __invoke_impl<void, (lambda at ./new2.cpp:107:23)>:__f <- [DW_OP_plus_uconst 8, DW_OP_stack_value] $r14
	#DEBUG_VALUE: __invoke<(lambda at ./new2.cpp:107:23)>:__fn <- [DW_OP_plus_uconst 8, DW_OP_stack_value] $r14
	#DEBUG_VALUE: _M_invoke<0>:this <- [DW_OP_plus_uconst 8, DW_OP_stack_value] $r14
	#DEBUG_VALUE: operator():this <- [DW_OP_plus_uconst 8, DW_OP_stack_value] $r14
	#DEBUG_VALUE: _M_run:this <- $r14
	.loc	67 561 2 prologue_end   # /usr/bin/../lib64/gcc/x86_64-pc-linux-gnu/8.0.0/../../../../include/c++/8.0.0/ostream:561:2
	movl	$_ZSt4cout, %edi
	movl	$.L.str.11, %esi
.Ltmp358:
	#DEBUG_VALUE: operator<<<std::char_traits<char> >:__s <- $rsi
	movl	$3, %edx
	callq	_ZSt16__ostream_insertIcSt11char_traitsIcEERSt13basic_ostreamIT_T0_ES6_PKS3_l
.Ltmp359:
	#DEBUG_VALUE: operator():x <- 8
	#DEBUG_VALUE: operator<<<std::char_traits<char> >:__out <- undef
	.loc	67 561 2 is_stmt 0      # /usr/bin/../lib64/gcc/x86_64-pc-linux-gnu/8.0.0/../../../../include/c++/8.0.0/ostream:561:2
	movl	$_ZSt4cout, %edi
	movl	$.L.str.1, %esi
.Ltmp360:
	#DEBUG_VALUE: operator<<<std::char_traits<char> >:__s <- $rsi
	movl	$1, %edx
	callq	_ZSt16__ostream_insertIcSt11char_traitsIcEERSt13basic_ostreamIT_T0_ES6_PKS3_l
.Ltmp361:
	.loc	4 167 39 is_stmt 1      # ./new2.cpp:167:39
	movl	$_ZSt4cout, %edi
.Ltmp362:
	#DEBUG_VALUE: operator<<<std::char_traits<char> >:__out <- $rdi
	movl	$8, %esi
	callq	_ZNSolsEi
.Ltmp363:
	#DEBUG_VALUE: operator<<<std::char_traits<char> >:__out <- $rax
	.loc	67 561 2                # /usr/bin/../lib64/gcc/x86_64-pc-linux-gnu/8.0.0/../../../../include/c++/8.0.0/ostream:561:2
	movl	$.L.str.10, %esi
.Ltmp364:
	#DEBUG_VALUE: operator<<<std::char_traits<char> >:__s <- $rsi
	movl	$5, %edx
	movq	%rax, %rdi
	callq	_ZSt16__ostream_insertIcSt11char_traitsIcEERSt13basic_ostreamIT_T0_ES6_PKS3_l
.Ltmp365:
	.loc	4 109 42                # ./new2.cpp:109:42
	movl	$9, 8(%rbx)
.Ltmp366:
	#DEBUG_VALUE: fetch_sub:__m <- 5
	#DEBUG_VALUE: fetch_sub:__i <- 1
	#DEBUG_VALUE: fetch_sub:this <- [DW_OP_stack_value] $rbx
	.loc	13 524 16               # /usr/bin/../lib64/gcc/x86_64-pc-linux-gnu/8.0.0/../../../../include/c++/8.0.0/bits/atomic_base.h:524:16
	lock		subl	$1, (%rbx)
.Ltmp367:
	.loc	4 111 24                # ./new2.cpp:111:24
	jne	.LBB14_2
.Ltmp368:
# %bb.1:
	#DEBUG_VALUE: _M_run:this <- $r14
	#DEBUG_VALUE: operator():this <- [DW_OP_plus_uconst 8, DW_OP_stack_value] $r14
	#DEBUG_VALUE: _M_invoke<0>:this <- [DW_OP_plus_uconst 8, DW_OP_stack_value] $r14
	#DEBUG_VALUE: __invoke<(lambda at ./new2.cpp:107:23)>:__fn <- [DW_OP_plus_uconst 8, DW_OP_stack_value] $r14
	#DEBUG_VALUE: __invoke_impl<void, (lambda at ./new2.cpp:107:23)>:__f <- [DW_OP_plus_uconst 8, DW_OP_stack_value] $r14
	#DEBUG_VALUE: operator():this <- [DW_OP_plus_uconst 8, DW_OP_stack_value] $r14
	#DEBUG_VALUE: execute<S, int &, (lambda at ./new2.cpp:108:59)>:this <- [DW_OP_plus_uconst 8, DW_OP_plus_uconst 48, DW_OP_deref, DW_OP_stack_value] $r14
	#DEBUG_VALUE: execute<S, int &, (lambda at ./new2.cpp:108:59)>:scheduler <- [DW_OP_plus_uconst 8, DW_OP_plus_uconst 56, DW_OP_deref, DW_OP_stack_value] $r14
	#DEBUG_VALUE: operator()<std::tuple<int, int> >:t <- [DW_OP_plus_uconst 8, DW_OP_stack_value] $rbx
	#DEBUG_VALUE: execute<S, std::tuple<int, int> &, const (lambda at ./new2.cpp:108:59) &>:input <- [DW_OP_plus_uconst 8, DW_OP_stack_value] $rbx
	#DEBUG_VALUE: operator()<std::tuple<int, int> &>:out <- [DW_OP_plus_uconst 8, DW_OP_stack_value] $rbx
	#DEBUG_VALUE: execute<S, std::tuple<int, int> &, const (lambda at ./new2.cpp:108:59) &>:then <- [DW_OP_plus_uconst 8, DW_OP_plus_uconst 16, DW_OP_stack_value] $r14
	.loc	4 191 26                # ./new2.cpp:191:26
	movl	12(%rbx), %esi
	.loc	4 191 23 is_stmt 0      # ./new2.cpp:191:23
	movl	$_ZSt4cout, %edi
	callq	_ZNSolsEi
	movq	%rax, %r15
.Ltmp369:
	#DEBUG_VALUE: operator<<<std::char_traits<char> >:__out <- $r15
	.loc	67 561 2 is_stmt 1      # /usr/bin/../lib64/gcc/x86_64-pc-linux-gnu/8.0.0/../../../../include/c++/8.0.0/ostream:561:2
	movl	$.L.str, %esi
.Ltmp370:
	#DEBUG_VALUE: operator<<<std::char_traits<char> >:__s <- $rsi
	movl	$2, %edx
	movq	%rax, %rdi
	callq	_ZSt16__ostream_insertIcSt11char_traitsIcEERSt13basic_ostreamIT_T0_ES6_PKS3_l
.Ltmp371:
	.loc	4 191 52                # ./new2.cpp:191:52
	movl	8(%rbx), %esi
	.loc	4 191 49 is_stmt 0      # ./new2.cpp:191:49
	movq	%r15, %rdi
	callq	_ZNSolsEi
	movb	$10, 15(%rsp)
.Ltmp372:
	#DEBUG_VALUE: operator<<<std::char_traits<char> >:__c <- 10
	#DEBUG_VALUE: operator<<<std::char_traits<char> >:__out <- $rax
	.loc	4 0 49                  # ./new2.cpp:0:49
	leaq	15(%rsp), %rsi
.Ltmp373:
	#DEBUG_VALUE: operator<<<std::char_traits<char> >:__c <- [DW_OP_plus_uconst 15] [$rsp+0]
	.loc	67 509 14 is_stmt 1     # /usr/bin/../lib64/gcc/x86_64-pc-linux-gnu/8.0.0/../../../../include/c++/8.0.0/ostream:509:14
	movl	$1, %edx
	movq	%rax, %rdi
	callq	_ZSt16__ostream_insertIcSt11char_traitsIcEERSt13basic_ostreamIT_T0_ES6_PKS3_l
.Ltmp374:
	.loc	67 0 14 is_stmt 0       # /usr/bin/../lib64/gcc/x86_64-pc-linux-gnu/8.0.0/../../../../include/c++/8.0.0/ostream:0:14
	movq	24(%r14), %rax
.Ltmp375:
	#DEBUG_VALUE: _M_head:__b <- [DW_OP_plus_uconst 44, DW_OP_stack_value] $rax
	#DEBUG_VALUE: _M_head:__t <- [DW_OP_plus_uconst 44, DW_OP_stack_value] $rax
	#DEBUG_VALUE: __get_helper<1, int>:__t <- [DW_OP_plus_uconst 44, DW_OP_stack_value] $rax
	#DEBUG_VALUE: get<1, int, int>:__t <- [DW_OP_plus_uconst 44, DW_OP_stack_value] $rax
	.loc	4 109 42 is_stmt 1      # ./new2.cpp:109:42
	movl	$-1, 44(%rax)
.Ltmp376:
	#DEBUG_VALUE: fetch_sub:__m <- 5
	#DEBUG_VALUE: fetch_sub:__i <- 1
	#DEBUG_VALUE: fetch_sub:this <- [DW_OP_plus_uconst 36, DW_OP_stack_value] $rax
	.loc	13 524 16               # /usr/bin/../lib64/gcc/x86_64-pc-linux-gnu/8.0.0/../../../../include/c++/8.0.0/bits/atomic_base.h:524:16
	lock		subl	$1, 36(%rax)
.Ltmp377:
.LBB14_2:
	#DEBUG_VALUE: _M_run:this <- $r14
	.loc	60 186 24               # /usr/bin/../lib64/gcc/x86_64-pc-linux-gnu/8.0.0/../../../../include/c++/8.0.0/thread:186:24
	addq	$16, %rsp
	popq	%rbx
	popq	%r14
.Ltmp378:
	popq	%r15
	retq
.Ltmp379:
.Lfunc_end14:
	.size	_ZNSt6thread11_State_implINS_8_InvokerISt5tupleIJZZN8node_andIJ8node_seqI4leafIiZ4mainE3$_6ES5_IiZ4mainE3$_7EES4_IS5_IiZ4mainE3$_8ES5_IiZ4mainE3$_9EEEE7executeI1SRiZNS4_ISG_S5_IS2_IJiiEEZ4mainE4$_11EE7executeISI_SJ_ZZZNS3_IJS4_IS3_IJS4_IS5_IiZ4mainE3$_0ES5_IiZ4mainE3$_1EES4_IS5_IiZ4mainE3$_2ES5_IiZ4mainE3$_3EES4_IS5_IiZ4mainE3$_4ES5_IiZ4mainE3$_5EEEES5_IS2_IJiiiEEZ4mainE4$_10EESN_EE7executeISI_iZ4mainE4$_12EEvRT_OT0_OT1_ENKUlS1C_RS1E_E_clISt17integral_constantImLm1EESN_EEDaS1C_S1I_ENKUlvE_clEvEUlOS1C_E_EEvS1D_S1F_S1H_EUlS1P_E_EEvS1D_S1F_S1H_ENKUlS1C_S1I_E_clIS1M_SF_EES1N_S1C_S1I_EUlvE_EEEEE6_M_runEv, .Lfunc_end14-_ZNSt6thread11_State_implINS_8_InvokerISt5tupleIJZZN8node_andIJ8node_seqI4leafIiZ4mainE3$_6ES5_IiZ4mainE3$_7EES4_IS5_IiZ4mainE3$_8ES5_IiZ4mainE3$_9EEEE7executeI1SRiZNS4_ISG_S5_IS2_IJiiEEZ4mainE4$_11EE7executeISI_SJ_ZZZNS3_IJS4_IS3_IJS4_IS5_IiZ4mainE3$_0ES5_IiZ4mainE3$_1EES4_IS5_IiZ4mainE3$_2ES5_IiZ4mainE3$_3EES4_IS5_IiZ4mainE3$_4ES5_IiZ4mainE3$_5EEEES5_IS2_IJiiiEEZ4mainE4$_10EESN_EE7executeISI_iZ4mainE4$_12EEvRT_OT0_OT1_ENKUlS1C_RS1E_E_clISt17integral_constantImLm1EESN_EEDaS1C_S1I_ENKUlvE_clEvEUlOS1C_E_EEvS1D_S1F_S1H_EUlS1P_E_EEvS1D_S1F_S1H_ENKUlS1C_S1I_E_clIS1M_SF_EES1N_S1C_S1I_EUlvE_EEEEE6_M_runEv
	.cfi_endproc
                                        # -- End function
	.section	.text.startup,"ax",@progbits
	.p2align	4, 0x90         # -- Begin function _GLOBAL__sub_I_new2.cpp
	.type	_GLOBAL__sub_I_new2.cpp,@function
_GLOBAL__sub_I_new2.cpp:                # @_GLOBAL__sub_I_new2.cpp
.Lfunc_begin15:
	.file	69 "new2.cpp"
	.loc	69 0 0                  # new2.cpp:0:0
	.cfi_startproc
# %bb.0:
	pushq	%rax
	.cfi_def_cfa_offset 16
.Ltmp380:
	.loc	3 74 25 prologue_end    # /usr/bin/../lib64/gcc/x86_64-pc-linux-gnu/8.0.0/../../../../include/c++/8.0.0/iostream:74:25
	movl	$_ZStL8__ioinit, %edi
	callq	_ZNSt8ios_base4InitC1Ev
	movl	$_ZNSt8ios_base4InitD1Ev, %edi
	movl	$_ZStL8__ioinit, %esi
	movl	$__dso_handle, %edx
	popq	%rax
	jmp	__cxa_atexit            # TAILCALL
.Ltmp381:
.Lfunc_end15:
	.size	_GLOBAL__sub_I_new2.cpp, .Lfunc_end15-_GLOBAL__sub_I_new2.cpp
	.cfi_endproc
                                        # -- End function
	.type	_ZStL8__ioinit,@object  # @_ZStL8__ioinit
	.local	_ZStL8__ioinit
	.comm	_ZStL8__ioinit,1,1
	.hidden	__dso_handle
	.type	_ZTVNSt6thread11_State_implINS_8_InvokerISt5tupleIJZZN8node_andIJ8node_seqIS3_IJS4_I4leafIiZ4mainE3$_0ES5_IiZ4mainE3$_1EES4_IS5_IiZ4mainE3$_2ES5_IiZ4mainE3$_3EES4_IS5_IiZ4mainE3$_4ES5_IiZ4mainE3$_5EEEES5_IS2_IJiiiEEZ4mainE4$_10EES4_IS3_IJS4_IS5_IiZ4mainE3$_6ES5_IiZ4mainE3$_7EES4_IS5_IiZ4mainE3$_8ES5_IiZ4mainE3$_9EEEES5_IS2_IJiiEEZ4mainE4$_11EEEE7executeI1SiZ4mainE4$_12EEvRT_OT0_OT1_ENKUlS19_RS1B_E_clISt17integral_constantImLm0EESP_EEDaS19_S1F_EUlvE_EEEEEE,@object # @"_ZTVNSt6thread11_State_implINS_8_InvokerISt5tupleIJZZN8node_andIJ8node_seqIS3_IJS4_I4leafIiZ4mainE3$_0ES5_IiZ4mainE3$_1EES4_IS5_IiZ4mainE3$_2ES5_IiZ4mainE3$_3EES4_IS5_IiZ4mainE3$_4ES5_IiZ4mainE3$_5EEEES5_IS2_IJiiiEEZ4mainE4$_10EES4_IS3_IJS4_IS5_IiZ4mainE3$_6ES5_IiZ4mainE3$_7EES4_IS5_IiZ4mainE3$_8ES5_IiZ4mainE3$_9EEEES5_IS2_IJiiEEZ4mainE4$_11EEEE7executeI1SiZ4mainE4$_12EEvRT_OT0_OT1_ENKUlS19_RS1B_E_clISt17integral_constantImLm0EESP_EEDaS19_S1F_EUlvE_EEEEEE"
	.section	.rodata,"a",@progbits
	.p2align	3
_ZTVNSt6thread11_State_implINS_8_InvokerISt5tupleIJZZN8node_andIJ8node_seqIS3_IJS4_I4leafIiZ4mainE3$_0ES5_IiZ4mainE3$_1EES4_IS5_IiZ4mainE3$_2ES5_IiZ4mainE3$_3EES4_IS5_IiZ4mainE3$_4ES5_IiZ4mainE3$_5EEEES5_IS2_IJiiiEEZ4mainE4$_10EES4_IS3_IJS4_IS5_IiZ4mainE3$_6ES5_IiZ4mainE3$_7EES4_IS5_IiZ4mainE3$_8ES5_IiZ4mainE3$_9EEEES5_IS2_IJiiEEZ4mainE4$_11EEEE7executeI1SiZ4mainE4$_12EEvRT_OT0_OT1_ENKUlS19_RS1B_E_clISt17integral_constantImLm0EESP_EEDaS19_S1F_EUlvE_EEEEEE:
	.quad	0
	.quad	_ZTINSt6thread11_State_implINS_8_InvokerISt5tupleIJZZN8node_andIJ8node_seqIS3_IJS4_I4leafIiZ4mainE3$_0ES5_IiZ4mainE3$_1EES4_IS5_IiZ4mainE3$_2ES5_IiZ4mainE3$_3EES4_IS5_IiZ4mainE3$_4ES5_IiZ4mainE3$_5EEEES5_IS2_IJiiiEEZ4mainE4$_10EES4_IS3_IJS4_IS5_IiZ4mainE3$_6ES5_IiZ4mainE3$_7EES4_IS5_IiZ4mainE3$_8ES5_IiZ4mainE3$_9EEEES5_IS2_IJiiEEZ4mainE4$_11EEEE7executeI1SiZ4mainE4$_12EEvRT_OT0_OT1_ENKUlS19_RS1B_E_clISt17integral_constantImLm0EESP_EEDaS19_S1F_EUlvE_EEEEEE
	.quad	_ZNSt6thread6_StateD2Ev
	.quad	_ZNSt6thread11_State_implINS_8_InvokerISt5tupleIJZZN8node_andIJ8node_seqIS3_IJS4_I4leafIiZ4mainE3$_0ES5_IiZ4mainE3$_1EES4_IS5_IiZ4mainE3$_2ES5_IiZ4mainE3$_3EES4_IS5_IiZ4mainE3$_4ES5_IiZ4mainE3$_5EEEES5_IS2_IJiiiEEZ4mainE4$_10EES4_IS3_IJS4_IS5_IiZ4mainE3$_6ES5_IiZ4mainE3$_7EES4_IS5_IiZ4mainE3$_8ES5_IiZ4mainE3$_9EEEES5_IS2_IJiiEEZ4mainE4$_11EEEE7executeI1SiZ4mainE4$_12EEvRT_OT0_OT1_ENKUlS19_RS1B_E_clISt17integral_constantImLm0EESP_EEDaS19_S1F_EUlvE_EEEEED0Ev
	.quad	_ZNSt6thread11_State_implINS_8_InvokerISt5tupleIJZZN8node_andIJ8node_seqIS3_IJS4_I4leafIiZ4mainE3$_0ES5_IiZ4mainE3$_1EES4_IS5_IiZ4mainE3$_2ES5_IiZ4mainE3$_3EES4_IS5_IiZ4mainE3$_4ES5_IiZ4mainE3$_5EEEES5_IS2_IJiiiEEZ4mainE4$_10EES4_IS3_IJS4_IS5_IiZ4mainE3$_6ES5_IiZ4mainE3$_7EES4_IS5_IiZ4mainE3$_8ES5_IiZ4mainE3$_9EEEES5_IS2_IJiiEEZ4mainE4$_11EEEE7executeI1SiZ4mainE4$_12EEvRT_OT0_OT1_ENKUlS19_RS1B_E_clISt17integral_constantImLm0EESP_EEDaS19_S1F_EUlvE_EEEEE6_M_runEv
	.size	_ZTVNSt6thread11_State_implINS_8_InvokerISt5tupleIJZZN8node_andIJ8node_seqIS3_IJS4_I4leafIiZ4mainE3$_0ES5_IiZ4mainE3$_1EES4_IS5_IiZ4mainE3$_2ES5_IiZ4mainE3$_3EES4_IS5_IiZ4mainE3$_4ES5_IiZ4mainE3$_5EEEES5_IS2_IJiiiEEZ4mainE4$_10EES4_IS3_IJS4_IS5_IiZ4mainE3$_6ES5_IiZ4mainE3$_7EES4_IS5_IiZ4mainE3$_8ES5_IiZ4mainE3$_9EEEES5_IS2_IJiiEEZ4mainE4$_11EEEE7executeI1SiZ4mainE4$_12EEvRT_OT0_OT1_ENKUlS19_RS1B_E_clISt17integral_constantImLm0EESP_EEDaS19_S1F_EUlvE_EEEEEE, 40

	.type	_ZTSNSt6thread11_State_implINS_8_InvokerISt5tupleIJZZN8node_andIJ8node_seqIS3_IJS4_I4leafIiZ4mainE3$_0ES5_IiZ4mainE3$_1EES4_IS5_IiZ4mainE3$_2ES5_IiZ4mainE3$_3EES4_IS5_IiZ4mainE3$_4ES5_IiZ4mainE3$_5EEEES5_IS2_IJiiiEEZ4mainE4$_10EES4_IS3_IJS4_IS5_IiZ4mainE3$_6ES5_IiZ4mainE3$_7EES4_IS5_IiZ4mainE3$_8ES5_IiZ4mainE3$_9EEEES5_IS2_IJiiEEZ4mainE4$_11EEEE7executeI1SiZ4mainE4$_12EEvRT_OT0_OT1_ENKUlS19_RS1B_E_clISt17integral_constantImLm0EESP_EEDaS19_S1F_EUlvE_EEEEEE,@object # @"_ZTSNSt6thread11_State_implINS_8_InvokerISt5tupleIJZZN8node_andIJ8node_seqIS3_IJS4_I4leafIiZ4mainE3$_0ES5_IiZ4mainE3$_1EES4_IS5_IiZ4mainE3$_2ES5_IiZ4mainE3$_3EES4_IS5_IiZ4mainE3$_4ES5_IiZ4mainE3$_5EEEES5_IS2_IJiiiEEZ4mainE4$_10EES4_IS3_IJS4_IS5_IiZ4mainE3$_6ES5_IiZ4mainE3$_7EES4_IS5_IiZ4mainE3$_8ES5_IiZ4mainE3$_9EEEES5_IS2_IJiiEEZ4mainE4$_11EEEE7executeI1SiZ4mainE4$_12EEvRT_OT0_OT1_ENKUlS19_RS1B_E_clISt17integral_constantImLm0EESP_EEDaS19_S1F_EUlvE_EEEEEE"
	.p2align	4
_ZTSNSt6thread11_State_implINS_8_InvokerISt5tupleIJZZN8node_andIJ8node_seqIS3_IJS4_I4leafIiZ4mainE3$_0ES5_IiZ4mainE3$_1EES4_IS5_IiZ4mainE3$_2ES5_IiZ4mainE3$_3EES4_IS5_IiZ4mainE3$_4ES5_IiZ4mainE3$_5EEEES5_IS2_IJiiiEEZ4mainE4$_10EES4_IS3_IJS4_IS5_IiZ4mainE3$_6ES5_IiZ4mainE3$_7EES4_IS5_IiZ4mainE3$_8ES5_IiZ4mainE3$_9EEEES5_IS2_IJiiEEZ4mainE4$_11EEEE7executeI1SiZ4mainE4$_12EEvRT_OT0_OT1_ENKUlS19_RS1B_E_clISt17integral_constantImLm0EESP_EEDaS19_S1F_EUlvE_EEEEEE:
	.asciz	"NSt6thread11_State_implINS_8_InvokerISt5tupleIJZZN8node_andIJ8node_seqIS3_IJS4_I4leafIiZ4mainE3$_0ES5_IiZ4mainE3$_1EES4_IS5_IiZ4mainE3$_2ES5_IiZ4mainE3$_3EES4_IS5_IiZ4mainE3$_4ES5_IiZ4mainE3$_5EEEES5_IS2_IJiiiEEZ4mainE4$_10EES4_IS3_IJS4_IS5_IiZ4mainE3$_6ES5_IiZ4mainE3$_7EES4_IS5_IiZ4mainE3$_8ES5_IiZ4mainE3$_9EEEES5_IS2_IJiiEEZ4mainE4$_11EEEE7executeI1SiZ4mainE4$_12EEvRT_OT0_OT1_ENKUlS19_RS1B_E_clISt17integral_constantImLm0EESP_EEDaS19_S1F_EUlvE_EEEEEE"
	.size	_ZTSNSt6thread11_State_implINS_8_InvokerISt5tupleIJZZN8node_andIJ8node_seqIS3_IJS4_I4leafIiZ4mainE3$_0ES5_IiZ4mainE3$_1EES4_IS5_IiZ4mainE3$_2ES5_IiZ4mainE3$_3EES4_IS5_IiZ4mainE3$_4ES5_IiZ4mainE3$_5EEEES5_IS2_IJiiiEEZ4mainE4$_10EES4_IS3_IJS4_IS5_IiZ4mainE3$_6ES5_IiZ4mainE3$_7EES4_IS5_IiZ4mainE3$_8ES5_IiZ4mainE3$_9EEEES5_IS2_IJiiEEZ4mainE4$_11EEEE7executeI1SiZ4mainE4$_12EEvRT_OT0_OT1_ENKUlS19_RS1B_E_clISt17integral_constantImLm0EESP_EEDaS19_S1F_EUlvE_EEEEEE, 456

	.type	_ZTINSt6thread11_State_implINS_8_InvokerISt5tupleIJZZN8node_andIJ8node_seqIS3_IJS4_I4leafIiZ4mainE3$_0ES5_IiZ4mainE3$_1EES4_IS5_IiZ4mainE3$_2ES5_IiZ4mainE3$_3EES4_IS5_IiZ4mainE3$_4ES5_IiZ4mainE3$_5EEEES5_IS2_IJiiiEEZ4mainE4$_10EES4_IS3_IJS4_IS5_IiZ4mainE3$_6ES5_IiZ4mainE3$_7EES4_IS5_IiZ4mainE3$_8ES5_IiZ4mainE3$_9EEEES5_IS2_IJiiEEZ4mainE4$_11EEEE7executeI1SiZ4mainE4$_12EEvRT_OT0_OT1_ENKUlS19_RS1B_E_clISt17integral_constantImLm0EESP_EEDaS19_S1F_EUlvE_EEEEEE,@object # @"_ZTINSt6thread11_State_implINS_8_InvokerISt5tupleIJZZN8node_andIJ8node_seqIS3_IJS4_I4leafIiZ4mainE3$_0ES5_IiZ4mainE3$_1EES4_IS5_IiZ4mainE3$_2ES5_IiZ4mainE3$_3EES4_IS5_IiZ4mainE3$_4ES5_IiZ4mainE3$_5EEEES5_IS2_IJiiiEEZ4mainE4$_10EES4_IS3_IJS4_IS5_IiZ4mainE3$_6ES5_IiZ4mainE3$_7EES4_IS5_IiZ4mainE3$_8ES5_IiZ4mainE3$_9EEEES5_IS2_IJiiEEZ4mainE4$_11EEEE7executeI1SiZ4mainE4$_12EEvRT_OT0_OT1_ENKUlS19_RS1B_E_clISt17integral_constantImLm0EESP_EEDaS19_S1F_EUlvE_EEEEEE"
	.p2align	4
_ZTINSt6thread11_State_implINS_8_InvokerISt5tupleIJZZN8node_andIJ8node_seqIS3_IJS4_I4leafIiZ4mainE3$_0ES5_IiZ4mainE3$_1EES4_IS5_IiZ4mainE3$_2ES5_IiZ4mainE3$_3EES4_IS5_IiZ4mainE3$_4ES5_IiZ4mainE3$_5EEEES5_IS2_IJiiiEEZ4mainE4$_10EES4_IS3_IJS4_IS5_IiZ4mainE3$_6ES5_IiZ4mainE3$_7EES4_IS5_IiZ4mainE3$_8ES5_IiZ4mainE3$_9EEEES5_IS2_IJiiEEZ4mainE4$_11EEEE7executeI1SiZ4mainE4$_12EEvRT_OT0_OT1_ENKUlS19_RS1B_E_clISt17integral_constantImLm0EESP_EEDaS19_S1F_EUlvE_EEEEEE:
	.quad	_ZTVN10__cxxabiv120__si_class_type_infoE+16
	.quad	_ZTSNSt6thread11_State_implINS_8_InvokerISt5tupleIJZZN8node_andIJ8node_seqIS3_IJS4_I4leafIiZ4mainE3$_0ES5_IiZ4mainE3$_1EES4_IS5_IiZ4mainE3$_2ES5_IiZ4mainE3$_3EES4_IS5_IiZ4mainE3$_4ES5_IiZ4mainE3$_5EEEES5_IS2_IJiiiEEZ4mainE4$_10EES4_IS3_IJS4_IS5_IiZ4mainE3$_6ES5_IiZ4mainE3$_7EES4_IS5_IiZ4mainE3$_8ES5_IiZ4mainE3$_9EEEES5_IS2_IJiiEEZ4mainE4$_11EEEE7executeI1SiZ4mainE4$_12EEvRT_OT0_OT1_ENKUlS19_RS1B_E_clISt17integral_constantImLm0EESP_EEDaS19_S1F_EUlvE_EEEEEE
	.quad	_ZTINSt6thread6_StateE
	.size	_ZTINSt6thread11_State_implINS_8_InvokerISt5tupleIJZZN8node_andIJ8node_seqIS3_IJS4_I4leafIiZ4mainE3$_0ES5_IiZ4mainE3$_1EES4_IS5_IiZ4mainE3$_2ES5_IiZ4mainE3$_3EES4_IS5_IiZ4mainE3$_4ES5_IiZ4mainE3$_5EEEES5_IS2_IJiiiEEZ4mainE4$_10EES4_IS3_IJS4_IS5_IiZ4mainE3$_6ES5_IiZ4mainE3$_7EES4_IS5_IiZ4mainE3$_8ES5_IiZ4mainE3$_9EEEES5_IS2_IJiiEEZ4mainE4$_11EEEE7executeI1SiZ4mainE4$_12EEvRT_OT0_OT1_ENKUlS19_RS1B_E_clISt17integral_constantImLm0EESP_EEDaS19_S1F_EUlvE_EEEEEE, 24

	.type	_ZTVNSt6thread11_State_implINS_8_InvokerISt5tupleIJZZN8node_andIJ8node_seqI4leafIiZ4mainE3$_0ES5_IiZ4mainE3$_1EES4_IS5_IiZ4mainE3$_2ES5_IiZ4mainE3$_3EES4_IS5_IiZ4mainE3$_4ES5_IiZ4mainE3$_5EEEE7executeI1SRiZNS4_ISL_S5_IS2_IJiiiEEZ4mainE4$_10EE7executeISN_SO_ZZZNS3_IJSS_S4_IS3_IJS4_IS5_IiZ4mainE3$_6ES5_IiZ4mainE3$_7EES4_IS5_IiZ4mainE3$_8ES5_IiZ4mainE3$_9EEEES5_IS2_IJiiEEZ4mainE4$_11EEEE7executeISN_iZ4mainE4$_12EEvRT_OT0_OT1_ENKUlS1C_RS1E_E_clISt17integral_constantImLm0EESS_EEDaS1C_S1I_ENKUlvE_clEvEUlOS1C_E_EEvS1D_S1F_S1H_EUlS1P_E_EEvS1D_S1F_S1H_ENKUlS1C_S1I_E_clIS1M_SA_EES1N_S1C_S1I_EUlvE_EEEEEE,@object # @"_ZTVNSt6thread11_State_implINS_8_InvokerISt5tupleIJZZN8node_andIJ8node_seqI4leafIiZ4mainE3$_0ES5_IiZ4mainE3$_1EES4_IS5_IiZ4mainE3$_2ES5_IiZ4mainE3$_3EES4_IS5_IiZ4mainE3$_4ES5_IiZ4mainE3$_5EEEE7executeI1SRiZNS4_ISL_S5_IS2_IJiiiEEZ4mainE4$_10EE7executeISN_SO_ZZZNS3_IJSS_S4_IS3_IJS4_IS5_IiZ4mainE3$_6ES5_IiZ4mainE3$_7EES4_IS5_IiZ4mainE3$_8ES5_IiZ4mainE3$_9EEEES5_IS2_IJiiEEZ4mainE4$_11EEEE7executeISN_iZ4mainE4$_12EEvRT_OT0_OT1_ENKUlS1C_RS1E_E_clISt17integral_constantImLm0EESS_EEDaS1C_S1I_ENKUlvE_clEvEUlOS1C_E_EEvS1D_S1F_S1H_EUlS1P_E_EEvS1D_S1F_S1H_ENKUlS1C_S1I_E_clIS1M_SA_EES1N_S1C_S1I_EUlvE_EEEEEE"
	.p2align	3
_ZTVNSt6thread11_State_implINS_8_InvokerISt5tupleIJZZN8node_andIJ8node_seqI4leafIiZ4mainE3$_0ES5_IiZ4mainE3$_1EES4_IS5_IiZ4mainE3$_2ES5_IiZ4mainE3$_3EES4_IS5_IiZ4mainE3$_4ES5_IiZ4mainE3$_5EEEE7executeI1SRiZNS4_ISL_S5_IS2_IJiiiEEZ4mainE4$_10EE7executeISN_SO_ZZZNS3_IJSS_S4_IS3_IJS4_IS5_IiZ4mainE3$_6ES5_IiZ4mainE3$_7EES4_IS5_IiZ4mainE3$_8ES5_IiZ4mainE3$_9EEEES5_IS2_IJiiEEZ4mainE4$_11EEEE7executeISN_iZ4mainE4$_12EEvRT_OT0_OT1_ENKUlS1C_RS1E_E_clISt17integral_constantImLm0EESS_EEDaS1C_S1I_ENKUlvE_clEvEUlOS1C_E_EEvS1D_S1F_S1H_EUlS1P_E_EEvS1D_S1F_S1H_ENKUlS1C_S1I_E_clIS1M_SA_EES1N_S1C_S1I_EUlvE_EEEEEE:
	.quad	0
	.quad	_ZTINSt6thread11_State_implINS_8_InvokerISt5tupleIJZZN8node_andIJ8node_seqI4leafIiZ4mainE3$_0ES5_IiZ4mainE3$_1EES4_IS5_IiZ4mainE3$_2ES5_IiZ4mainE3$_3EES4_IS5_IiZ4mainE3$_4ES5_IiZ4mainE3$_5EEEE7executeI1SRiZNS4_ISL_S5_IS2_IJiiiEEZ4mainE4$_10EE7executeISN_SO_ZZZNS3_IJSS_S4_IS3_IJS4_IS5_IiZ4mainE3$_6ES5_IiZ4mainE3$_7EES4_IS5_IiZ4mainE3$_8ES5_IiZ4mainE3$_9EEEES5_IS2_IJiiEEZ4mainE4$_11EEEE7executeISN_iZ4mainE4$_12EEvRT_OT0_OT1_ENKUlS1C_RS1E_E_clISt17integral_constantImLm0EESS_EEDaS1C_S1I_ENKUlvE_clEvEUlOS1C_E_EEvS1D_S1F_S1H_EUlS1P_E_EEvS1D_S1F_S1H_ENKUlS1C_S1I_E_clIS1M_SA_EES1N_S1C_S1I_EUlvE_EEEEEE
	.quad	_ZNSt6thread6_StateD2Ev
	.quad	_ZNSt6thread11_State_implINS_8_InvokerISt5tupleIJZZN8node_andIJ8node_seqI4leafIiZ4mainE3$_0ES5_IiZ4mainE3$_1EES4_IS5_IiZ4mainE3$_2ES5_IiZ4mainE3$_3EES4_IS5_IiZ4mainE3$_4ES5_IiZ4mainE3$_5EEEE7executeI1SRiZNS4_ISL_S5_IS2_IJiiiEEZ4mainE4$_10EE7executeISN_SO_ZZZNS3_IJSS_S4_IS3_IJS4_IS5_IiZ4mainE3$_6ES5_IiZ4mainE3$_7EES4_IS5_IiZ4mainE3$_8ES5_IiZ4mainE3$_9EEEES5_IS2_IJiiEEZ4mainE4$_11EEEE7executeISN_iZ4mainE4$_12EEvRT_OT0_OT1_ENKUlS1C_RS1E_E_clISt17integral_constantImLm0EESS_EEDaS1C_S1I_ENKUlvE_clEvEUlOS1C_E_EEvS1D_S1F_S1H_EUlS1P_E_EEvS1D_S1F_S1H_ENKUlS1C_S1I_E_clIS1M_SA_EES1N_S1C_S1I_EUlvE_EEEEED0Ev
	.quad	_ZNSt6thread11_State_implINS_8_InvokerISt5tupleIJZZN8node_andIJ8node_seqI4leafIiZ4mainE3$_0ES5_IiZ4mainE3$_1EES4_IS5_IiZ4mainE3$_2ES5_IiZ4mainE3$_3EES4_IS5_IiZ4mainE3$_4ES5_IiZ4mainE3$_5EEEE7executeI1SRiZNS4_ISL_S5_IS2_IJiiiEEZ4mainE4$_10EE7executeISN_SO_ZZZNS3_IJSS_S4_IS3_IJS4_IS5_IiZ4mainE3$_6ES5_IiZ4mainE3$_7EES4_IS5_IiZ4mainE3$_8ES5_IiZ4mainE3$_9EEEES5_IS2_IJiiEEZ4mainE4$_11EEEE7executeISN_iZ4mainE4$_12EEvRT_OT0_OT1_ENKUlS1C_RS1E_E_clISt17integral_constantImLm0EESS_EEDaS1C_S1I_ENKUlvE_clEvEUlOS1C_E_EEvS1D_S1F_S1H_EUlS1P_E_EEvS1D_S1F_S1H_ENKUlS1C_S1I_E_clIS1M_SA_EES1N_S1C_S1I_EUlvE_EEEEE6_M_runEv
	.size	_ZTVNSt6thread11_State_implINS_8_InvokerISt5tupleIJZZN8node_andIJ8node_seqI4leafIiZ4mainE3$_0ES5_IiZ4mainE3$_1EES4_IS5_IiZ4mainE3$_2ES5_IiZ4mainE3$_3EES4_IS5_IiZ4mainE3$_4ES5_IiZ4mainE3$_5EEEE7executeI1SRiZNS4_ISL_S5_IS2_IJiiiEEZ4mainE4$_10EE7executeISN_SO_ZZZNS3_IJSS_S4_IS3_IJS4_IS5_IiZ4mainE3$_6ES5_IiZ4mainE3$_7EES4_IS5_IiZ4mainE3$_8ES5_IiZ4mainE3$_9EEEES5_IS2_IJiiEEZ4mainE4$_11EEEE7executeISN_iZ4mainE4$_12EEvRT_OT0_OT1_ENKUlS1C_RS1E_E_clISt17integral_constantImLm0EESS_EEDaS1C_S1I_ENKUlvE_clEvEUlOS1C_E_EEvS1D_S1F_S1H_EUlS1P_E_EEvS1D_S1F_S1H_ENKUlS1C_S1I_E_clIS1M_SA_EES1N_S1C_S1I_EUlvE_EEEEEE, 40

	.type	_ZTSNSt6thread11_State_implINS_8_InvokerISt5tupleIJZZN8node_andIJ8node_seqI4leafIiZ4mainE3$_0ES5_IiZ4mainE3$_1EES4_IS5_IiZ4mainE3$_2ES5_IiZ4mainE3$_3EES4_IS5_IiZ4mainE3$_4ES5_IiZ4mainE3$_5EEEE7executeI1SRiZNS4_ISL_S5_IS2_IJiiiEEZ4mainE4$_10EE7executeISN_SO_ZZZNS3_IJSS_S4_IS3_IJS4_IS5_IiZ4mainE3$_6ES5_IiZ4mainE3$_7EES4_IS5_IiZ4mainE3$_8ES5_IiZ4mainE3$_9EEEES5_IS2_IJiiEEZ4mainE4$_11EEEE7executeISN_iZ4mainE4$_12EEvRT_OT0_OT1_ENKUlS1C_RS1E_E_clISt17integral_constantImLm0EESS_EEDaS1C_S1I_ENKUlvE_clEvEUlOS1C_E_EEvS1D_S1F_S1H_EUlS1P_E_EEvS1D_S1F_S1H_ENKUlS1C_S1I_E_clIS1M_SA_EES1N_S1C_S1I_EUlvE_EEEEEE,@object # @"_ZTSNSt6thread11_State_implINS_8_InvokerISt5tupleIJZZN8node_andIJ8node_seqI4leafIiZ4mainE3$_0ES5_IiZ4mainE3$_1EES4_IS5_IiZ4mainE3$_2ES5_IiZ4mainE3$_3EES4_IS5_IiZ4mainE3$_4ES5_IiZ4mainE3$_5EEEE7executeI1SRiZNS4_ISL_S5_IS2_IJiiiEEZ4mainE4$_10EE7executeISN_SO_ZZZNS3_IJSS_S4_IS3_IJS4_IS5_IiZ4mainE3$_6ES5_IiZ4mainE3$_7EES4_IS5_IiZ4mainE3$_8ES5_IiZ4mainE3$_9EEEES5_IS2_IJiiEEZ4mainE4$_11EEEE7executeISN_iZ4mainE4$_12EEvRT_OT0_OT1_ENKUlS1C_RS1E_E_clISt17integral_constantImLm0EESS_EEDaS1C_S1I_ENKUlvE_clEvEUlOS1C_E_EEvS1D_S1F_S1H_EUlS1P_E_EEvS1D_S1F_S1H_ENKUlS1C_S1I_E_clIS1M_SA_EES1N_S1C_S1I_EUlvE_EEEEEE"
	.p2align	4
_ZTSNSt6thread11_State_implINS_8_InvokerISt5tupleIJZZN8node_andIJ8node_seqI4leafIiZ4mainE3$_0ES5_IiZ4mainE3$_1EES4_IS5_IiZ4mainE3$_2ES5_IiZ4mainE3$_3EES4_IS5_IiZ4mainE3$_4ES5_IiZ4mainE3$_5EEEE7executeI1SRiZNS4_ISL_S5_IS2_IJiiiEEZ4mainE4$_10EE7executeISN_SO_ZZZNS3_IJSS_S4_IS3_IJS4_IS5_IiZ4mainE3$_6ES5_IiZ4mainE3$_7EES4_IS5_IiZ4mainE3$_8ES5_IiZ4mainE3$_9EEEES5_IS2_IJiiEEZ4mainE4$_11EEEE7executeISN_iZ4mainE4$_12EEvRT_OT0_OT1_ENKUlS1C_RS1E_E_clISt17integral_constantImLm0EESS_EEDaS1C_S1I_ENKUlvE_clEvEUlOS1C_E_EEvS1D_S1F_S1H_EUlS1P_E_EEvS1D_S1F_S1H_ENKUlS1C_S1I_E_clIS1M_SA_EES1N_S1C_S1I_EUlvE_EEEEEE:
	.asciz	"NSt6thread11_State_implINS_8_InvokerISt5tupleIJZZN8node_andIJ8node_seqI4leafIiZ4mainE3$_0ES5_IiZ4mainE3$_1EES4_IS5_IiZ4mainE3$_2ES5_IiZ4mainE3$_3EES4_IS5_IiZ4mainE3$_4ES5_IiZ4mainE3$_5EEEE7executeI1SRiZNS4_ISL_S5_IS2_IJiiiEEZ4mainE4$_10EE7executeISN_SO_ZZZNS3_IJSS_S4_IS3_IJS4_IS5_IiZ4mainE3$_6ES5_IiZ4mainE3$_7EES4_IS5_IiZ4mainE3$_8ES5_IiZ4mainE3$_9EEEES5_IS2_IJiiEEZ4mainE4$_11EEEE7executeISN_iZ4mainE4$_12EEvRT_OT0_OT1_ENKUlS1C_RS1E_E_clISt17integral_constantImLm0EESS_EEDaS1C_S1I_ENKUlvE_clEvEUlOS1C_E_EEvS1D_S1F_S1H_EUlS1P_E_EEvS1D_S1F_S1H_ENKUlS1C_S1I_E_clIS1M_SA_EES1N_S1C_S1I_EUlvE_EEEEEE"
	.size	_ZTSNSt6thread11_State_implINS_8_InvokerISt5tupleIJZZN8node_andIJ8node_seqI4leafIiZ4mainE3$_0ES5_IiZ4mainE3$_1EES4_IS5_IiZ4mainE3$_2ES5_IiZ4mainE3$_3EES4_IS5_IiZ4mainE3$_4ES5_IiZ4mainE3$_5EEEE7executeI1SRiZNS4_ISL_S5_IS2_IJiiiEEZ4mainE4$_10EE7executeISN_SO_ZZZNS3_IJSS_S4_IS3_IJS4_IS5_IiZ4mainE3$_6ES5_IiZ4mainE3$_7EES4_IS5_IiZ4mainE3$_8ES5_IiZ4mainE3$_9EEEES5_IS2_IJiiEEZ4mainE4$_11EEEE7executeISN_iZ4mainE4$_12EEvRT_OT0_OT1_ENKUlS1C_RS1E_E_clISt17integral_constantImLm0EESS_EEDaS1C_S1I_ENKUlvE_clEvEUlOS1C_E_EEvS1D_S1F_S1H_EUlS1P_E_EEvS1D_S1F_S1H_ENKUlS1C_S1I_E_clIS1M_SA_EES1N_S1C_S1I_EUlvE_EEEEEE, 597

	.type	_ZTINSt6thread11_State_implINS_8_InvokerISt5tupleIJZZN8node_andIJ8node_seqI4leafIiZ4mainE3$_0ES5_IiZ4mainE3$_1EES4_IS5_IiZ4mainE3$_2ES5_IiZ4mainE3$_3EES4_IS5_IiZ4mainE3$_4ES5_IiZ4mainE3$_5EEEE7executeI1SRiZNS4_ISL_S5_IS2_IJiiiEEZ4mainE4$_10EE7executeISN_SO_ZZZNS3_IJSS_S4_IS3_IJS4_IS5_IiZ4mainE3$_6ES5_IiZ4mainE3$_7EES4_IS5_IiZ4mainE3$_8ES5_IiZ4mainE3$_9EEEES5_IS2_IJiiEEZ4mainE4$_11EEEE7executeISN_iZ4mainE4$_12EEvRT_OT0_OT1_ENKUlS1C_RS1E_E_clISt17integral_constantImLm0EESS_EEDaS1C_S1I_ENKUlvE_clEvEUlOS1C_E_EEvS1D_S1F_S1H_EUlS1P_E_EEvS1D_S1F_S1H_ENKUlS1C_S1I_E_clIS1M_SA_EES1N_S1C_S1I_EUlvE_EEEEEE,@object # @"_ZTINSt6thread11_State_implINS_8_InvokerISt5tupleIJZZN8node_andIJ8node_seqI4leafIiZ4mainE3$_0ES5_IiZ4mainE3$_1EES4_IS5_IiZ4mainE3$_2ES5_IiZ4mainE3$_3EES4_IS5_IiZ4mainE3$_4ES5_IiZ4mainE3$_5EEEE7executeI1SRiZNS4_ISL_S5_IS2_IJiiiEEZ4mainE4$_10EE7executeISN_SO_ZZZNS3_IJSS_S4_IS3_IJS4_IS5_IiZ4mainE3$_6ES5_IiZ4mainE3$_7EES4_IS5_IiZ4mainE3$_8ES5_IiZ4mainE3$_9EEEES5_IS2_IJiiEEZ4mainE4$_11EEEE7executeISN_iZ4mainE4$_12EEvRT_OT0_OT1_ENKUlS1C_RS1E_E_clISt17integral_constantImLm0EESS_EEDaS1C_S1I_ENKUlvE_clEvEUlOS1C_E_EEvS1D_S1F_S1H_EUlS1P_E_EEvS1D_S1F_S1H_ENKUlS1C_S1I_E_clIS1M_SA_EES1N_S1C_S1I_EUlvE_EEEEEE"
	.p2align	4
_ZTINSt6thread11_State_implINS_8_InvokerISt5tupleIJZZN8node_andIJ8node_seqI4leafIiZ4mainE3$_0ES5_IiZ4mainE3$_1EES4_IS5_IiZ4mainE3$_2ES5_IiZ4mainE3$_3EES4_IS5_IiZ4mainE3$_4ES5_IiZ4mainE3$_5EEEE7executeI1SRiZNS4_ISL_S5_IS2_IJiiiEEZ4mainE4$_10EE7executeISN_SO_ZZZNS3_IJSS_S4_IS3_IJS4_IS5_IiZ4mainE3$_6ES5_IiZ4mainE3$_7EES4_IS5_IiZ4mainE3$_8ES5_IiZ4mainE3$_9EEEES5_IS2_IJiiEEZ4mainE4$_11EEEE7executeISN_iZ4mainE4$_12EEvRT_OT0_OT1_ENKUlS1C_RS1E_E_clISt17integral_constantImLm0EESS_EEDaS1C_S1I_ENKUlvE_clEvEUlOS1C_E_EEvS1D_S1F_S1H_EUlS1P_E_EEvS1D_S1F_S1H_ENKUlS1C_S1I_E_clIS1M_SA_EES1N_S1C_S1I_EUlvE_EEEEEE:
	.quad	_ZTVN10__cxxabiv120__si_class_type_infoE+16
	.quad	_ZTSNSt6thread11_State_implINS_8_InvokerISt5tupleIJZZN8node_andIJ8node_seqI4leafIiZ4mainE3$_0ES5_IiZ4mainE3$_1EES4_IS5_IiZ4mainE3$_2ES5_IiZ4mainE3$_3EES4_IS5_IiZ4mainE3$_4ES5_IiZ4mainE3$_5EEEE7executeI1SRiZNS4_ISL_S5_IS2_IJiiiEEZ4mainE4$_10EE7executeISN_SO_ZZZNS3_IJSS_S4_IS3_IJS4_IS5_IiZ4mainE3$_6ES5_IiZ4mainE3$_7EES4_IS5_IiZ4mainE3$_8ES5_IiZ4mainE3$_9EEEES5_IS2_IJiiEEZ4mainE4$_11EEEE7executeISN_iZ4mainE4$_12EEvRT_OT0_OT1_ENKUlS1C_RS1E_E_clISt17integral_constantImLm0EESS_EEDaS1C_S1I_ENKUlvE_clEvEUlOS1C_E_EEvS1D_S1F_S1H_EUlS1P_E_EEvS1D_S1F_S1H_ENKUlS1C_S1I_E_clIS1M_SA_EES1N_S1C_S1I_EUlvE_EEEEEE
	.quad	_ZTINSt6thread6_StateE
	.size	_ZTINSt6thread11_State_implINS_8_InvokerISt5tupleIJZZN8node_andIJ8node_seqI4leafIiZ4mainE3$_0ES5_IiZ4mainE3$_1EES4_IS5_IiZ4mainE3$_2ES5_IiZ4mainE3$_3EES4_IS5_IiZ4mainE3$_4ES5_IiZ4mainE3$_5EEEE7executeI1SRiZNS4_ISL_S5_IS2_IJiiiEEZ4mainE4$_10EE7executeISN_SO_ZZZNS3_IJSS_S4_IS3_IJS4_IS5_IiZ4mainE3$_6ES5_IiZ4mainE3$_7EES4_IS5_IiZ4mainE3$_8ES5_IiZ4mainE3$_9EEEES5_IS2_IJiiEEZ4mainE4$_11EEEE7executeISN_iZ4mainE4$_12EEvRT_OT0_OT1_ENKUlS1C_RS1E_E_clISt17integral_constantImLm0EESS_EEDaS1C_S1I_ENKUlvE_clEvEUlOS1C_E_EEvS1D_S1F_S1H_EUlS1P_E_EEvS1D_S1F_S1H_ENKUlS1C_S1I_E_clIS1M_SA_EES1N_S1C_S1I_EUlvE_EEEEEE, 24

	.type	.L.str,@object          # @.str
	.section	.rodata.str1.1,"aMS",@progbits,1
.L.str:
	.asciz	", "
	.size	.L.str, 3

	.type	.L.str.1,@object        # @.str.1
.L.str.1:
	.asciz	"("
	.size	.L.str.1, 2

	.type	.L.str.2,@object        # @.str.2
.L.str.2:
	.asciz	") l1\n"
	.size	.L.str.2, 6

	.type	.L.str.3,@object        # @.str.3
.L.str.3:
	.asciz	"l0\n"
	.size	.L.str.3, 4

	.type	_ZTVNSt6thread11_State_implINS_8_InvokerISt5tupleIJZZN8node_andIJ8node_seqI4leafIiZ4mainE3$_0ES5_IiZ4mainE3$_1EES4_IS5_IiZ4mainE3$_2ES5_IiZ4mainE3$_3EES4_IS5_IiZ4mainE3$_4ES5_IiZ4mainE3$_5EEEE7executeI1SRiZNS4_ISL_S5_IS2_IJiiiEEZ4mainE4$_10EE7executeISN_SO_ZZZNS3_IJSS_S4_IS3_IJS4_IS5_IiZ4mainE3$_6ES5_IiZ4mainE3$_7EES4_IS5_IiZ4mainE3$_8ES5_IiZ4mainE3$_9EEEES5_IS2_IJiiEEZ4mainE4$_11EEEE7executeISN_iZ4mainE4$_12EEvRT_OT0_OT1_ENKUlS1C_RS1E_E_clISt17integral_constantImLm0EESS_EEDaS1C_S1I_ENKUlvE_clEvEUlOS1C_E_EEvS1D_S1F_S1H_EUlS1P_E_EEvS1D_S1F_S1H_ENKUlS1C_S1I_E_clIS1L_ImLm1EESF_EES1N_S1C_S1I_EUlvE_EEEEEE,@object # @"_ZTVNSt6thread11_State_implINS_8_InvokerISt5tupleIJZZN8node_andIJ8node_seqI4leafIiZ4mainE3$_0ES5_IiZ4mainE3$_1EES4_IS5_IiZ4mainE3$_2ES5_IiZ4mainE3$_3EES4_IS5_IiZ4mainE3$_4ES5_IiZ4mainE3$_5EEEE7executeI1SRiZNS4_ISL_S5_IS2_IJiiiEEZ4mainE4$_10EE7executeISN_SO_ZZZNS3_IJSS_S4_IS3_IJS4_IS5_IiZ4mainE3$_6ES5_IiZ4mainE3$_7EES4_IS5_IiZ4mainE3$_8ES5_IiZ4mainE3$_9EEEES5_IS2_IJiiEEZ4mainE4$_11EEEE7executeISN_iZ4mainE4$_12EEvRT_OT0_OT1_ENKUlS1C_RS1E_E_clISt17integral_constantImLm0EESS_EEDaS1C_S1I_ENKUlvE_clEvEUlOS1C_E_EEvS1D_S1F_S1H_EUlS1P_E_EEvS1D_S1F_S1H_ENKUlS1C_S1I_E_clIS1L_ImLm1EESF_EES1N_S1C_S1I_EUlvE_EEEEEE"
	.section	.rodata,"a",@progbits
	.p2align	3
_ZTVNSt6thread11_State_implINS_8_InvokerISt5tupleIJZZN8node_andIJ8node_seqI4leafIiZ4mainE3$_0ES5_IiZ4mainE3$_1EES4_IS5_IiZ4mainE3$_2ES5_IiZ4mainE3$_3EES4_IS5_IiZ4mainE3$_4ES5_IiZ4mainE3$_5EEEE7executeI1SRiZNS4_ISL_S5_IS2_IJiiiEEZ4mainE4$_10EE7executeISN_SO_ZZZNS3_IJSS_S4_IS3_IJS4_IS5_IiZ4mainE3$_6ES5_IiZ4mainE3$_7EES4_IS5_IiZ4mainE3$_8ES5_IiZ4mainE3$_9EEEES5_IS2_IJiiEEZ4mainE4$_11EEEE7executeISN_iZ4mainE4$_12EEvRT_OT0_OT1_ENKUlS1C_RS1E_E_clISt17integral_constantImLm0EESS_EEDaS1C_S1I_ENKUlvE_clEvEUlOS1C_E_EEvS1D_S1F_S1H_EUlS1P_E_EEvS1D_S1F_S1H_ENKUlS1C_S1I_E_clIS1L_ImLm1EESF_EES1N_S1C_S1I_EUlvE_EEEEEE:
	.quad	0
	.quad	_ZTINSt6thread11_State_implINS_8_InvokerISt5tupleIJZZN8node_andIJ8node_seqI4leafIiZ4mainE3$_0ES5_IiZ4mainE3$_1EES4_IS5_IiZ4mainE3$_2ES5_IiZ4mainE3$_3EES4_IS5_IiZ4mainE3$_4ES5_IiZ4mainE3$_5EEEE7executeI1SRiZNS4_ISL_S5_IS2_IJiiiEEZ4mainE4$_10EE7executeISN_SO_ZZZNS3_IJSS_S4_IS3_IJS4_IS5_IiZ4mainE3$_6ES5_IiZ4mainE3$_7EES4_IS5_IiZ4mainE3$_8ES5_IiZ4mainE3$_9EEEES5_IS2_IJiiEEZ4mainE4$_11EEEE7executeISN_iZ4mainE4$_12EEvRT_OT0_OT1_ENKUlS1C_RS1E_E_clISt17integral_constantImLm0EESS_EEDaS1C_S1I_ENKUlvE_clEvEUlOS1C_E_EEvS1D_S1F_S1H_EUlS1P_E_EEvS1D_S1F_S1H_ENKUlS1C_S1I_E_clIS1L_ImLm1EESF_EES1N_S1C_S1I_EUlvE_EEEEEE
	.quad	_ZNSt6thread6_StateD2Ev
	.quad	_ZNSt6thread11_State_implINS_8_InvokerISt5tupleIJZZN8node_andIJ8node_seqI4leafIiZ4mainE3$_0ES5_IiZ4mainE3$_1EES4_IS5_IiZ4mainE3$_2ES5_IiZ4mainE3$_3EES4_IS5_IiZ4mainE3$_4ES5_IiZ4mainE3$_5EEEE7executeI1SRiZNS4_ISL_S5_IS2_IJiiiEEZ4mainE4$_10EE7executeISN_SO_ZZZNS3_IJSS_S4_IS3_IJS4_IS5_IiZ4mainE3$_6ES5_IiZ4mainE3$_7EES4_IS5_IiZ4mainE3$_8ES5_IiZ4mainE3$_9EEEES5_IS2_IJiiEEZ4mainE4$_11EEEE7executeISN_iZ4mainE4$_12EEvRT_OT0_OT1_ENKUlS1C_RS1E_E_clISt17integral_constantImLm0EESS_EEDaS1C_S1I_ENKUlvE_clEvEUlOS1C_E_EEvS1D_S1F_S1H_EUlS1P_E_EEvS1D_S1F_S1H_ENKUlS1C_S1I_E_clIS1L_ImLm1EESF_EES1N_S1C_S1I_EUlvE_EEEEED0Ev
	.quad	_ZNSt6thread11_State_implINS_8_InvokerISt5tupleIJZZN8node_andIJ8node_seqI4leafIiZ4mainE3$_0ES5_IiZ4mainE3$_1EES4_IS5_IiZ4mainE3$_2ES5_IiZ4mainE3$_3EES4_IS5_IiZ4mainE3$_4ES5_IiZ4mainE3$_5EEEE7executeI1SRiZNS4_ISL_S5_IS2_IJiiiEEZ4mainE4$_10EE7executeISN_SO_ZZZNS3_IJSS_S4_IS3_IJS4_IS5_IiZ4mainE3$_6ES5_IiZ4mainE3$_7EES4_IS5_IiZ4mainE3$_8ES5_IiZ4mainE3$_9EEEES5_IS2_IJiiEEZ4mainE4$_11EEEE7executeISN_iZ4mainE4$_12EEvRT_OT0_OT1_ENKUlS1C_RS1E_E_clISt17integral_constantImLm0EESS_EEDaS1C_S1I_ENKUlvE_clEvEUlOS1C_E_EEvS1D_S1F_S1H_EUlS1P_E_EEvS1D_S1F_S1H_ENKUlS1C_S1I_E_clIS1L_ImLm1EESF_EES1N_S1C_S1I_EUlvE_EEEEE6_M_runEv
	.size	_ZTVNSt6thread11_State_implINS_8_InvokerISt5tupleIJZZN8node_andIJ8node_seqI4leafIiZ4mainE3$_0ES5_IiZ4mainE3$_1EES4_IS5_IiZ4mainE3$_2ES5_IiZ4mainE3$_3EES4_IS5_IiZ4mainE3$_4ES5_IiZ4mainE3$_5EEEE7executeI1SRiZNS4_ISL_S5_IS2_IJiiiEEZ4mainE4$_10EE7executeISN_SO_ZZZNS3_IJSS_S4_IS3_IJS4_IS5_IiZ4mainE3$_6ES5_IiZ4mainE3$_7EES4_IS5_IiZ4mainE3$_8ES5_IiZ4mainE3$_9EEEES5_IS2_IJiiEEZ4mainE4$_11EEEE7executeISN_iZ4mainE4$_12EEvRT_OT0_OT1_ENKUlS1C_RS1E_E_clISt17integral_constantImLm0EESS_EEDaS1C_S1I_ENKUlvE_clEvEUlOS1C_E_EEvS1D_S1F_S1H_EUlS1P_E_EEvS1D_S1F_S1H_ENKUlS1C_S1I_E_clIS1L_ImLm1EESF_EES1N_S1C_S1I_EUlvE_EEEEEE, 40

	.type	_ZTSNSt6thread11_State_implINS_8_InvokerISt5tupleIJZZN8node_andIJ8node_seqI4leafIiZ4mainE3$_0ES5_IiZ4mainE3$_1EES4_IS5_IiZ4mainE3$_2ES5_IiZ4mainE3$_3EES4_IS5_IiZ4mainE3$_4ES5_IiZ4mainE3$_5EEEE7executeI1SRiZNS4_ISL_S5_IS2_IJiiiEEZ4mainE4$_10EE7executeISN_SO_ZZZNS3_IJSS_S4_IS3_IJS4_IS5_IiZ4mainE3$_6ES5_IiZ4mainE3$_7EES4_IS5_IiZ4mainE3$_8ES5_IiZ4mainE3$_9EEEES5_IS2_IJiiEEZ4mainE4$_11EEEE7executeISN_iZ4mainE4$_12EEvRT_OT0_OT1_ENKUlS1C_RS1E_E_clISt17integral_constantImLm0EESS_EEDaS1C_S1I_ENKUlvE_clEvEUlOS1C_E_EEvS1D_S1F_S1H_EUlS1P_E_EEvS1D_S1F_S1H_ENKUlS1C_S1I_E_clIS1L_ImLm1EESF_EES1N_S1C_S1I_EUlvE_EEEEEE,@object # @"_ZTSNSt6thread11_State_implINS_8_InvokerISt5tupleIJZZN8node_andIJ8node_seqI4leafIiZ4mainE3$_0ES5_IiZ4mainE3$_1EES4_IS5_IiZ4mainE3$_2ES5_IiZ4mainE3$_3EES4_IS5_IiZ4mainE3$_4ES5_IiZ4mainE3$_5EEEE7executeI1SRiZNS4_ISL_S5_IS2_IJiiiEEZ4mainE4$_10EE7executeISN_SO_ZZZNS3_IJSS_S4_IS3_IJS4_IS5_IiZ4mainE3$_6ES5_IiZ4mainE3$_7EES4_IS5_IiZ4mainE3$_8ES5_IiZ4mainE3$_9EEEES5_IS2_IJiiEEZ4mainE4$_11EEEE7executeISN_iZ4mainE4$_12EEvRT_OT0_OT1_ENKUlS1C_RS1E_E_clISt17integral_constantImLm0EESS_EEDaS1C_S1I_ENKUlvE_clEvEUlOS1C_E_EEvS1D_S1F_S1H_EUlS1P_E_EEvS1D_S1F_S1H_ENKUlS1C_S1I_E_clIS1L_ImLm1EESF_EES1N_S1C_S1I_EUlvE_EEEEEE"
	.p2align	4
_ZTSNSt6thread11_State_implINS_8_InvokerISt5tupleIJZZN8node_andIJ8node_seqI4leafIiZ4mainE3$_0ES5_IiZ4mainE3$_1EES4_IS5_IiZ4mainE3$_2ES5_IiZ4mainE3$_3EES4_IS5_IiZ4mainE3$_4ES5_IiZ4mainE3$_5EEEE7executeI1SRiZNS4_ISL_S5_IS2_IJiiiEEZ4mainE4$_10EE7executeISN_SO_ZZZNS3_IJSS_S4_IS3_IJS4_IS5_IiZ4mainE3$_6ES5_IiZ4mainE3$_7EES4_IS5_IiZ4mainE3$_8ES5_IiZ4mainE3$_9EEEES5_IS2_IJiiEEZ4mainE4$_11EEEE7executeISN_iZ4mainE4$_12EEvRT_OT0_OT1_ENKUlS1C_RS1E_E_clISt17integral_constantImLm0EESS_EEDaS1C_S1I_ENKUlvE_clEvEUlOS1C_E_EEvS1D_S1F_S1H_EUlS1P_E_EEvS1D_S1F_S1H_ENKUlS1C_S1I_E_clIS1L_ImLm1EESF_EES1N_S1C_S1I_EUlvE_EEEEEE:
	.asciz	"NSt6thread11_State_implINS_8_InvokerISt5tupleIJZZN8node_andIJ8node_seqI4leafIiZ4mainE3$_0ES5_IiZ4mainE3$_1EES4_IS5_IiZ4mainE3$_2ES5_IiZ4mainE3$_3EES4_IS5_IiZ4mainE3$_4ES5_IiZ4mainE3$_5EEEE7executeI1SRiZNS4_ISL_S5_IS2_IJiiiEEZ4mainE4$_10EE7executeISN_SO_ZZZNS3_IJSS_S4_IS3_IJS4_IS5_IiZ4mainE3$_6ES5_IiZ4mainE3$_7EES4_IS5_IiZ4mainE3$_8ES5_IiZ4mainE3$_9EEEES5_IS2_IJiiEEZ4mainE4$_11EEEE7executeISN_iZ4mainE4$_12EEvRT_OT0_OT1_ENKUlS1C_RS1E_E_clISt17integral_constantImLm0EESS_EEDaS1C_S1I_ENKUlvE_clEvEUlOS1C_E_EEvS1D_S1F_S1H_EUlS1P_E_EEvS1D_S1F_S1H_ENKUlS1C_S1I_E_clIS1L_ImLm1EESF_EES1N_S1C_S1I_EUlvE_EEEEEE"
	.size	_ZTSNSt6thread11_State_implINS_8_InvokerISt5tupleIJZZN8node_andIJ8node_seqI4leafIiZ4mainE3$_0ES5_IiZ4mainE3$_1EES4_IS5_IiZ4mainE3$_2ES5_IiZ4mainE3$_3EES4_IS5_IiZ4mainE3$_4ES5_IiZ4mainE3$_5EEEE7executeI1SRiZNS4_ISL_S5_IS2_IJiiiEEZ4mainE4$_10EE7executeISN_SO_ZZZNS3_IJSS_S4_IS3_IJS4_IS5_IiZ4mainE3$_6ES5_IiZ4mainE3$_7EES4_IS5_IiZ4mainE3$_8ES5_IiZ4mainE3$_9EEEES5_IS2_IJiiEEZ4mainE4$_11EEEE7executeISN_iZ4mainE4$_12EEvRT_OT0_OT1_ENKUlS1C_RS1E_E_clISt17integral_constantImLm0EESS_EEDaS1C_S1I_ENKUlvE_clEvEUlOS1C_E_EEvS1D_S1F_S1H_EUlS1P_E_EEvS1D_S1F_S1H_ENKUlS1C_S1I_E_clIS1L_ImLm1EESF_EES1N_S1C_S1I_EUlvE_EEEEEE, 604

	.type	_ZTINSt6thread11_State_implINS_8_InvokerISt5tupleIJZZN8node_andIJ8node_seqI4leafIiZ4mainE3$_0ES5_IiZ4mainE3$_1EES4_IS5_IiZ4mainE3$_2ES5_IiZ4mainE3$_3EES4_IS5_IiZ4mainE3$_4ES5_IiZ4mainE3$_5EEEE7executeI1SRiZNS4_ISL_S5_IS2_IJiiiEEZ4mainE4$_10EE7executeISN_SO_ZZZNS3_IJSS_S4_IS3_IJS4_IS5_IiZ4mainE3$_6ES5_IiZ4mainE3$_7EES4_IS5_IiZ4mainE3$_8ES5_IiZ4mainE3$_9EEEES5_IS2_IJiiEEZ4mainE4$_11EEEE7executeISN_iZ4mainE4$_12EEvRT_OT0_OT1_ENKUlS1C_RS1E_E_clISt17integral_constantImLm0EESS_EEDaS1C_S1I_ENKUlvE_clEvEUlOS1C_E_EEvS1D_S1F_S1H_EUlS1P_E_EEvS1D_S1F_S1H_ENKUlS1C_S1I_E_clIS1L_ImLm1EESF_EES1N_S1C_S1I_EUlvE_EEEEEE,@object # @"_ZTINSt6thread11_State_implINS_8_InvokerISt5tupleIJZZN8node_andIJ8node_seqI4leafIiZ4mainE3$_0ES5_IiZ4mainE3$_1EES4_IS5_IiZ4mainE3$_2ES5_IiZ4mainE3$_3EES4_IS5_IiZ4mainE3$_4ES5_IiZ4mainE3$_5EEEE7executeI1SRiZNS4_ISL_S5_IS2_IJiiiEEZ4mainE4$_10EE7executeISN_SO_ZZZNS3_IJSS_S4_IS3_IJS4_IS5_IiZ4mainE3$_6ES5_IiZ4mainE3$_7EES4_IS5_IiZ4mainE3$_8ES5_IiZ4mainE3$_9EEEES5_IS2_IJiiEEZ4mainE4$_11EEEE7executeISN_iZ4mainE4$_12EEvRT_OT0_OT1_ENKUlS1C_RS1E_E_clISt17integral_constantImLm0EESS_EEDaS1C_S1I_ENKUlvE_clEvEUlOS1C_E_EEvS1D_S1F_S1H_EUlS1P_E_EEvS1D_S1F_S1H_ENKUlS1C_S1I_E_clIS1L_ImLm1EESF_EES1N_S1C_S1I_EUlvE_EEEEEE"
	.p2align	4
_ZTINSt6thread11_State_implINS_8_InvokerISt5tupleIJZZN8node_andIJ8node_seqI4leafIiZ4mainE3$_0ES5_IiZ4mainE3$_1EES4_IS5_IiZ4mainE3$_2ES5_IiZ4mainE3$_3EES4_IS5_IiZ4mainE3$_4ES5_IiZ4mainE3$_5EEEE7executeI1SRiZNS4_ISL_S5_IS2_IJiiiEEZ4mainE4$_10EE7executeISN_SO_ZZZNS3_IJSS_S4_IS3_IJS4_IS5_IiZ4mainE3$_6ES5_IiZ4mainE3$_7EES4_IS5_IiZ4mainE3$_8ES5_IiZ4mainE3$_9EEEES5_IS2_IJiiEEZ4mainE4$_11EEEE7executeISN_iZ4mainE4$_12EEvRT_OT0_OT1_ENKUlS1C_RS1E_E_clISt17integral_constantImLm0EESS_EEDaS1C_S1I_ENKUlvE_clEvEUlOS1C_E_EEvS1D_S1F_S1H_EUlS1P_E_EEvS1D_S1F_S1H_ENKUlS1C_S1I_E_clIS1L_ImLm1EESF_EES1N_S1C_S1I_EUlvE_EEEEEE:
	.quad	_ZTVN10__cxxabiv120__si_class_type_infoE+16
	.quad	_ZTSNSt6thread11_State_implINS_8_InvokerISt5tupleIJZZN8node_andIJ8node_seqI4leafIiZ4mainE3$_0ES5_IiZ4mainE3$_1EES4_IS5_IiZ4mainE3$_2ES5_IiZ4mainE3$_3EES4_IS5_IiZ4mainE3$_4ES5_IiZ4mainE3$_5EEEE7executeI1SRiZNS4_ISL_S5_IS2_IJiiiEEZ4mainE4$_10EE7executeISN_SO_ZZZNS3_IJSS_S4_IS3_IJS4_IS5_IiZ4mainE3$_6ES5_IiZ4mainE3$_7EES4_IS5_IiZ4mainE3$_8ES5_IiZ4mainE3$_9EEEES5_IS2_IJiiEEZ4mainE4$_11EEEE7executeISN_iZ4mainE4$_12EEvRT_OT0_OT1_ENKUlS1C_RS1E_E_clISt17integral_constantImLm0EESS_EEDaS1C_S1I_ENKUlvE_clEvEUlOS1C_E_EEvS1D_S1F_S1H_EUlS1P_E_EEvS1D_S1F_S1H_ENKUlS1C_S1I_E_clIS1L_ImLm1EESF_EES1N_S1C_S1I_EUlvE_EEEEEE
	.quad	_ZTINSt6thread6_StateE
	.size	_ZTINSt6thread11_State_implINS_8_InvokerISt5tupleIJZZN8node_andIJ8node_seqI4leafIiZ4mainE3$_0ES5_IiZ4mainE3$_1EES4_IS5_IiZ4mainE3$_2ES5_IiZ4mainE3$_3EES4_IS5_IiZ4mainE3$_4ES5_IiZ4mainE3$_5EEEE7executeI1SRiZNS4_ISL_S5_IS2_IJiiiEEZ4mainE4$_10EE7executeISN_SO_ZZZNS3_IJSS_S4_IS3_IJS4_IS5_IiZ4mainE3$_6ES5_IiZ4mainE3$_7EES4_IS5_IiZ4mainE3$_8ES5_IiZ4mainE3$_9EEEES5_IS2_IJiiEEZ4mainE4$_11EEEE7executeISN_iZ4mainE4$_12EEvRT_OT0_OT1_ENKUlS1C_RS1E_E_clISt17integral_constantImLm0EESS_EEDaS1C_S1I_ENKUlvE_clEvEUlOS1C_E_EEvS1D_S1F_S1H_EUlS1P_E_EEvS1D_S1F_S1H_ENKUlS1C_S1I_E_clIS1L_ImLm1EESF_EES1N_S1C_S1I_EUlvE_EEEEEE, 24

	.type	.L.str.4,@object        # @.str.4
	.section	.rodata.str1.1,"aMS",@progbits,1
.L.str.4:
	.asciz	") l3\n"
	.size	.L.str.4, 6

	.type	.L.str.5,@object        # @.str.5
.L.str.5:
	.asciz	"l2\n"
	.size	.L.str.5, 4

	.type	_ZTVNSt6thread11_State_implINS_8_InvokerISt5tupleIJZZN8node_andIJ8node_seqI4leafIiZ4mainE3$_0ES5_IiZ4mainE3$_1EES4_IS5_IiZ4mainE3$_2ES5_IiZ4mainE3$_3EES4_IS5_IiZ4mainE3$_4ES5_IiZ4mainE3$_5EEEE7executeI1SRiZNS4_ISL_S5_IS2_IJiiiEEZ4mainE4$_10EE7executeISN_SO_ZZZNS3_IJSS_S4_IS3_IJS4_IS5_IiZ4mainE3$_6ES5_IiZ4mainE3$_7EES4_IS5_IiZ4mainE3$_8ES5_IiZ4mainE3$_9EEEES5_IS2_IJiiEEZ4mainE4$_11EEEE7executeISN_iZ4mainE4$_12EEvRT_OT0_OT1_ENKUlS1C_RS1E_E_clISt17integral_constantImLm0EESS_EEDaS1C_S1I_ENKUlvE_clEvEUlOS1C_E_EEvS1D_S1F_S1H_EUlS1P_E_EEvS1D_S1F_S1H_ENKUlS1C_S1I_E_clIS1L_ImLm2EESK_EES1N_S1C_S1I_EUlvE_EEEEEE,@object # @"_ZTVNSt6thread11_State_implINS_8_InvokerISt5tupleIJZZN8node_andIJ8node_seqI4leafIiZ4mainE3$_0ES5_IiZ4mainE3$_1EES4_IS5_IiZ4mainE3$_2ES5_IiZ4mainE3$_3EES4_IS5_IiZ4mainE3$_4ES5_IiZ4mainE3$_5EEEE7executeI1SRiZNS4_ISL_S5_IS2_IJiiiEEZ4mainE4$_10EE7executeISN_SO_ZZZNS3_IJSS_S4_IS3_IJS4_IS5_IiZ4mainE3$_6ES5_IiZ4mainE3$_7EES4_IS5_IiZ4mainE3$_8ES5_IiZ4mainE3$_9EEEES5_IS2_IJiiEEZ4mainE4$_11EEEE7executeISN_iZ4mainE4$_12EEvRT_OT0_OT1_ENKUlS1C_RS1E_E_clISt17integral_constantImLm0EESS_EEDaS1C_S1I_ENKUlvE_clEvEUlOS1C_E_EEvS1D_S1F_S1H_EUlS1P_E_EEvS1D_S1F_S1H_ENKUlS1C_S1I_E_clIS1L_ImLm2EESK_EES1N_S1C_S1I_EUlvE_EEEEEE"
	.section	.rodata,"a",@progbits
	.p2align	3
_ZTVNSt6thread11_State_implINS_8_InvokerISt5tupleIJZZN8node_andIJ8node_seqI4leafIiZ4mainE3$_0ES5_IiZ4mainE3$_1EES4_IS5_IiZ4mainE3$_2ES5_IiZ4mainE3$_3EES4_IS5_IiZ4mainE3$_4ES5_IiZ4mainE3$_5EEEE7executeI1SRiZNS4_ISL_S5_IS2_IJiiiEEZ4mainE4$_10EE7executeISN_SO_ZZZNS3_IJSS_S4_IS3_IJS4_IS5_IiZ4mainE3$_6ES5_IiZ4mainE3$_7EES4_IS5_IiZ4mainE3$_8ES5_IiZ4mainE3$_9EEEES5_IS2_IJiiEEZ4mainE4$_11EEEE7executeISN_iZ4mainE4$_12EEvRT_OT0_OT1_ENKUlS1C_RS1E_E_clISt17integral_constantImLm0EESS_EEDaS1C_S1I_ENKUlvE_clEvEUlOS1C_E_EEvS1D_S1F_S1H_EUlS1P_E_EEvS1D_S1F_S1H_ENKUlS1C_S1I_E_clIS1L_ImLm2EESK_EES1N_S1C_S1I_EUlvE_EEEEEE:
	.quad	0
	.quad	_ZTINSt6thread11_State_implINS_8_InvokerISt5tupleIJZZN8node_andIJ8node_seqI4leafIiZ4mainE3$_0ES5_IiZ4mainE3$_1EES4_IS5_IiZ4mainE3$_2ES5_IiZ4mainE3$_3EES4_IS5_IiZ4mainE3$_4ES5_IiZ4mainE3$_5EEEE7executeI1SRiZNS4_ISL_S5_IS2_IJiiiEEZ4mainE4$_10EE7executeISN_SO_ZZZNS3_IJSS_S4_IS3_IJS4_IS5_IiZ4mainE3$_6ES5_IiZ4mainE3$_7EES4_IS5_IiZ4mainE3$_8ES5_IiZ4mainE3$_9EEEES5_IS2_IJiiEEZ4mainE4$_11EEEE7executeISN_iZ4mainE4$_12EEvRT_OT0_OT1_ENKUlS1C_RS1E_E_clISt17integral_constantImLm0EESS_EEDaS1C_S1I_ENKUlvE_clEvEUlOS1C_E_EEvS1D_S1F_S1H_EUlS1P_E_EEvS1D_S1F_S1H_ENKUlS1C_S1I_E_clIS1L_ImLm2EESK_EES1N_S1C_S1I_EUlvE_EEEEEE
	.quad	_ZNSt6thread6_StateD2Ev
	.quad	_ZNSt6thread11_State_implINS_8_InvokerISt5tupleIJZZN8node_andIJ8node_seqI4leafIiZ4mainE3$_0ES5_IiZ4mainE3$_1EES4_IS5_IiZ4mainE3$_2ES5_IiZ4mainE3$_3EES4_IS5_IiZ4mainE3$_4ES5_IiZ4mainE3$_5EEEE7executeI1SRiZNS4_ISL_S5_IS2_IJiiiEEZ4mainE4$_10EE7executeISN_SO_ZZZNS3_IJSS_S4_IS3_IJS4_IS5_IiZ4mainE3$_6ES5_IiZ4mainE3$_7EES4_IS5_IiZ4mainE3$_8ES5_IiZ4mainE3$_9EEEES5_IS2_IJiiEEZ4mainE4$_11EEEE7executeISN_iZ4mainE4$_12EEvRT_OT0_OT1_ENKUlS1C_RS1E_E_clISt17integral_constantImLm0EESS_EEDaS1C_S1I_ENKUlvE_clEvEUlOS1C_E_EEvS1D_S1F_S1H_EUlS1P_E_EEvS1D_S1F_S1H_ENKUlS1C_S1I_E_clIS1L_ImLm2EESK_EES1N_S1C_S1I_EUlvE_EEEEED0Ev
	.quad	_ZNSt6thread11_State_implINS_8_InvokerISt5tupleIJZZN8node_andIJ8node_seqI4leafIiZ4mainE3$_0ES5_IiZ4mainE3$_1EES4_IS5_IiZ4mainE3$_2ES5_IiZ4mainE3$_3EES4_IS5_IiZ4mainE3$_4ES5_IiZ4mainE3$_5EEEE7executeI1SRiZNS4_ISL_S5_IS2_IJiiiEEZ4mainE4$_10EE7executeISN_SO_ZZZNS3_IJSS_S4_IS3_IJS4_IS5_IiZ4mainE3$_6ES5_IiZ4mainE3$_7EES4_IS5_IiZ4mainE3$_8ES5_IiZ4mainE3$_9EEEES5_IS2_IJiiEEZ4mainE4$_11EEEE7executeISN_iZ4mainE4$_12EEvRT_OT0_OT1_ENKUlS1C_RS1E_E_clISt17integral_constantImLm0EESS_EEDaS1C_S1I_ENKUlvE_clEvEUlOS1C_E_EEvS1D_S1F_S1H_EUlS1P_E_EEvS1D_S1F_S1H_ENKUlS1C_S1I_E_clIS1L_ImLm2EESK_EES1N_S1C_S1I_EUlvE_EEEEE6_M_runEv
	.size	_ZTVNSt6thread11_State_implINS_8_InvokerISt5tupleIJZZN8node_andIJ8node_seqI4leafIiZ4mainE3$_0ES5_IiZ4mainE3$_1EES4_IS5_IiZ4mainE3$_2ES5_IiZ4mainE3$_3EES4_IS5_IiZ4mainE3$_4ES5_IiZ4mainE3$_5EEEE7executeI1SRiZNS4_ISL_S5_IS2_IJiiiEEZ4mainE4$_10EE7executeISN_SO_ZZZNS3_IJSS_S4_IS3_IJS4_IS5_IiZ4mainE3$_6ES5_IiZ4mainE3$_7EES4_IS5_IiZ4mainE3$_8ES5_IiZ4mainE3$_9EEEES5_IS2_IJiiEEZ4mainE4$_11EEEE7executeISN_iZ4mainE4$_12EEvRT_OT0_OT1_ENKUlS1C_RS1E_E_clISt17integral_constantImLm0EESS_EEDaS1C_S1I_ENKUlvE_clEvEUlOS1C_E_EEvS1D_S1F_S1H_EUlS1P_E_EEvS1D_S1F_S1H_ENKUlS1C_S1I_E_clIS1L_ImLm2EESK_EES1N_S1C_S1I_EUlvE_EEEEEE, 40

	.type	_ZTSNSt6thread11_State_implINS_8_InvokerISt5tupleIJZZN8node_andIJ8node_seqI4leafIiZ4mainE3$_0ES5_IiZ4mainE3$_1EES4_IS5_IiZ4mainE3$_2ES5_IiZ4mainE3$_3EES4_IS5_IiZ4mainE3$_4ES5_IiZ4mainE3$_5EEEE7executeI1SRiZNS4_ISL_S5_IS2_IJiiiEEZ4mainE4$_10EE7executeISN_SO_ZZZNS3_IJSS_S4_IS3_IJS4_IS5_IiZ4mainE3$_6ES5_IiZ4mainE3$_7EES4_IS5_IiZ4mainE3$_8ES5_IiZ4mainE3$_9EEEES5_IS2_IJiiEEZ4mainE4$_11EEEE7executeISN_iZ4mainE4$_12EEvRT_OT0_OT1_ENKUlS1C_RS1E_E_clISt17integral_constantImLm0EESS_EEDaS1C_S1I_ENKUlvE_clEvEUlOS1C_E_EEvS1D_S1F_S1H_EUlS1P_E_EEvS1D_S1F_S1H_ENKUlS1C_S1I_E_clIS1L_ImLm2EESK_EES1N_S1C_S1I_EUlvE_EEEEEE,@object # @"_ZTSNSt6thread11_State_implINS_8_InvokerISt5tupleIJZZN8node_andIJ8node_seqI4leafIiZ4mainE3$_0ES5_IiZ4mainE3$_1EES4_IS5_IiZ4mainE3$_2ES5_IiZ4mainE3$_3EES4_IS5_IiZ4mainE3$_4ES5_IiZ4mainE3$_5EEEE7executeI1SRiZNS4_ISL_S5_IS2_IJiiiEEZ4mainE4$_10EE7executeISN_SO_ZZZNS3_IJSS_S4_IS3_IJS4_IS5_IiZ4mainE3$_6ES5_IiZ4mainE3$_7EES4_IS5_IiZ4mainE3$_8ES5_IiZ4mainE3$_9EEEES5_IS2_IJiiEEZ4mainE4$_11EEEE7executeISN_iZ4mainE4$_12EEvRT_OT0_OT1_ENKUlS1C_RS1E_E_clISt17integral_constantImLm0EESS_EEDaS1C_S1I_ENKUlvE_clEvEUlOS1C_E_EEvS1D_S1F_S1H_EUlS1P_E_EEvS1D_S1F_S1H_ENKUlS1C_S1I_E_clIS1L_ImLm2EESK_EES1N_S1C_S1I_EUlvE_EEEEEE"
	.p2align	4
_ZTSNSt6thread11_State_implINS_8_InvokerISt5tupleIJZZN8node_andIJ8node_seqI4leafIiZ4mainE3$_0ES5_IiZ4mainE3$_1EES4_IS5_IiZ4mainE3$_2ES5_IiZ4mainE3$_3EES4_IS5_IiZ4mainE3$_4ES5_IiZ4mainE3$_5EEEE7executeI1SRiZNS4_ISL_S5_IS2_IJiiiEEZ4mainE4$_10EE7executeISN_SO_ZZZNS3_IJSS_S4_IS3_IJS4_IS5_IiZ4mainE3$_6ES5_IiZ4mainE3$_7EES4_IS5_IiZ4mainE3$_8ES5_IiZ4mainE3$_9EEEES5_IS2_IJiiEEZ4mainE4$_11EEEE7executeISN_iZ4mainE4$_12EEvRT_OT0_OT1_ENKUlS1C_RS1E_E_clISt17integral_constantImLm0EESS_EEDaS1C_S1I_ENKUlvE_clEvEUlOS1C_E_EEvS1D_S1F_S1H_EUlS1P_E_EEvS1D_S1F_S1H_ENKUlS1C_S1I_E_clIS1L_ImLm2EESK_EES1N_S1C_S1I_EUlvE_EEEEEE:
	.asciz	"NSt6thread11_State_implINS_8_InvokerISt5tupleIJZZN8node_andIJ8node_seqI4leafIiZ4mainE3$_0ES5_IiZ4mainE3$_1EES4_IS5_IiZ4mainE3$_2ES5_IiZ4mainE3$_3EES4_IS5_IiZ4mainE3$_4ES5_IiZ4mainE3$_5EEEE7executeI1SRiZNS4_ISL_S5_IS2_IJiiiEEZ4mainE4$_10EE7executeISN_SO_ZZZNS3_IJSS_S4_IS3_IJS4_IS5_IiZ4mainE3$_6ES5_IiZ4mainE3$_7EES4_IS5_IiZ4mainE3$_8ES5_IiZ4mainE3$_9EEEES5_IS2_IJiiEEZ4mainE4$_11EEEE7executeISN_iZ4mainE4$_12EEvRT_OT0_OT1_ENKUlS1C_RS1E_E_clISt17integral_constantImLm0EESS_EEDaS1C_S1I_ENKUlvE_clEvEUlOS1C_E_EEvS1D_S1F_S1H_EUlS1P_E_EEvS1D_S1F_S1H_ENKUlS1C_S1I_E_clIS1L_ImLm2EESK_EES1N_S1C_S1I_EUlvE_EEEEEE"
	.size	_ZTSNSt6thread11_State_implINS_8_InvokerISt5tupleIJZZN8node_andIJ8node_seqI4leafIiZ4mainE3$_0ES5_IiZ4mainE3$_1EES4_IS5_IiZ4mainE3$_2ES5_IiZ4mainE3$_3EES4_IS5_IiZ4mainE3$_4ES5_IiZ4mainE3$_5EEEE7executeI1SRiZNS4_ISL_S5_IS2_IJiiiEEZ4mainE4$_10EE7executeISN_SO_ZZZNS3_IJSS_S4_IS3_IJS4_IS5_IiZ4mainE3$_6ES5_IiZ4mainE3$_7EES4_IS5_IiZ4mainE3$_8ES5_IiZ4mainE3$_9EEEES5_IS2_IJiiEEZ4mainE4$_11EEEE7executeISN_iZ4mainE4$_12EEvRT_OT0_OT1_ENKUlS1C_RS1E_E_clISt17integral_constantImLm0EESS_EEDaS1C_S1I_ENKUlvE_clEvEUlOS1C_E_EEvS1D_S1F_S1H_EUlS1P_E_EEvS1D_S1F_S1H_ENKUlS1C_S1I_E_clIS1L_ImLm2EESK_EES1N_S1C_S1I_EUlvE_EEEEEE, 604

	.type	_ZTINSt6thread11_State_implINS_8_InvokerISt5tupleIJZZN8node_andIJ8node_seqI4leafIiZ4mainE3$_0ES5_IiZ4mainE3$_1EES4_IS5_IiZ4mainE3$_2ES5_IiZ4mainE3$_3EES4_IS5_IiZ4mainE3$_4ES5_IiZ4mainE3$_5EEEE7executeI1SRiZNS4_ISL_S5_IS2_IJiiiEEZ4mainE4$_10EE7executeISN_SO_ZZZNS3_IJSS_S4_IS3_IJS4_IS5_IiZ4mainE3$_6ES5_IiZ4mainE3$_7EES4_IS5_IiZ4mainE3$_8ES5_IiZ4mainE3$_9EEEES5_IS2_IJiiEEZ4mainE4$_11EEEE7executeISN_iZ4mainE4$_12EEvRT_OT0_OT1_ENKUlS1C_RS1E_E_clISt17integral_constantImLm0EESS_EEDaS1C_S1I_ENKUlvE_clEvEUlOS1C_E_EEvS1D_S1F_S1H_EUlS1P_E_EEvS1D_S1F_S1H_ENKUlS1C_S1I_E_clIS1L_ImLm2EESK_EES1N_S1C_S1I_EUlvE_EEEEEE,@object # @"_ZTINSt6thread11_State_implINS_8_InvokerISt5tupleIJZZN8node_andIJ8node_seqI4leafIiZ4mainE3$_0ES5_IiZ4mainE3$_1EES4_IS5_IiZ4mainE3$_2ES5_IiZ4mainE3$_3EES4_IS5_IiZ4mainE3$_4ES5_IiZ4mainE3$_5EEEE7executeI1SRiZNS4_ISL_S5_IS2_IJiiiEEZ4mainE4$_10EE7executeISN_SO_ZZZNS3_IJSS_S4_IS3_IJS4_IS5_IiZ4mainE3$_6ES5_IiZ4mainE3$_7EES4_IS5_IiZ4mainE3$_8ES5_IiZ4mainE3$_9EEEES5_IS2_IJiiEEZ4mainE4$_11EEEE7executeISN_iZ4mainE4$_12EEvRT_OT0_OT1_ENKUlS1C_RS1E_E_clISt17integral_constantImLm0EESS_EEDaS1C_S1I_ENKUlvE_clEvEUlOS1C_E_EEvS1D_S1F_S1H_EUlS1P_E_EEvS1D_S1F_S1H_ENKUlS1C_S1I_E_clIS1L_ImLm2EESK_EES1N_S1C_S1I_EUlvE_EEEEEE"
	.p2align	4
_ZTINSt6thread11_State_implINS_8_InvokerISt5tupleIJZZN8node_andIJ8node_seqI4leafIiZ4mainE3$_0ES5_IiZ4mainE3$_1EES4_IS5_IiZ4mainE3$_2ES5_IiZ4mainE3$_3EES4_IS5_IiZ4mainE3$_4ES5_IiZ4mainE3$_5EEEE7executeI1SRiZNS4_ISL_S5_IS2_IJiiiEEZ4mainE4$_10EE7executeISN_SO_ZZZNS3_IJSS_S4_IS3_IJS4_IS5_IiZ4mainE3$_6ES5_IiZ4mainE3$_7EES4_IS5_IiZ4mainE3$_8ES5_IiZ4mainE3$_9EEEES5_IS2_IJiiEEZ4mainE4$_11EEEE7executeISN_iZ4mainE4$_12EEvRT_OT0_OT1_ENKUlS1C_RS1E_E_clISt17integral_constantImLm0EESS_EEDaS1C_S1I_ENKUlvE_clEvEUlOS1C_E_EEvS1D_S1F_S1H_EUlS1P_E_EEvS1D_S1F_S1H_ENKUlS1C_S1I_E_clIS1L_ImLm2EESK_EES1N_S1C_S1I_EUlvE_EEEEEE:
	.quad	_ZTVN10__cxxabiv120__si_class_type_infoE+16
	.quad	_ZTSNSt6thread11_State_implINS_8_InvokerISt5tupleIJZZN8node_andIJ8node_seqI4leafIiZ4mainE3$_0ES5_IiZ4mainE3$_1EES4_IS5_IiZ4mainE3$_2ES5_IiZ4mainE3$_3EES4_IS5_IiZ4mainE3$_4ES5_IiZ4mainE3$_5EEEE7executeI1SRiZNS4_ISL_S5_IS2_IJiiiEEZ4mainE4$_10EE7executeISN_SO_ZZZNS3_IJSS_S4_IS3_IJS4_IS5_IiZ4mainE3$_6ES5_IiZ4mainE3$_7EES4_IS5_IiZ4mainE3$_8ES5_IiZ4mainE3$_9EEEES5_IS2_IJiiEEZ4mainE4$_11EEEE7executeISN_iZ4mainE4$_12EEvRT_OT0_OT1_ENKUlS1C_RS1E_E_clISt17integral_constantImLm0EESS_EEDaS1C_S1I_ENKUlvE_clEvEUlOS1C_E_EEvS1D_S1F_S1H_EUlS1P_E_EEvS1D_S1F_S1H_ENKUlS1C_S1I_E_clIS1L_ImLm2EESK_EES1N_S1C_S1I_EUlvE_EEEEEE
	.quad	_ZTINSt6thread6_StateE
	.size	_ZTINSt6thread11_State_implINS_8_InvokerISt5tupleIJZZN8node_andIJ8node_seqI4leafIiZ4mainE3$_0ES5_IiZ4mainE3$_1EES4_IS5_IiZ4mainE3$_2ES5_IiZ4mainE3$_3EES4_IS5_IiZ4mainE3$_4ES5_IiZ4mainE3$_5EEEE7executeI1SRiZNS4_ISL_S5_IS2_IJiiiEEZ4mainE4$_10EE7executeISN_SO_ZZZNS3_IJSS_S4_IS3_IJS4_IS5_IiZ4mainE3$_6ES5_IiZ4mainE3$_7EES4_IS5_IiZ4mainE3$_8ES5_IiZ4mainE3$_9EEEES5_IS2_IJiiEEZ4mainE4$_11EEEE7executeISN_iZ4mainE4$_12EEvRT_OT0_OT1_ENKUlS1C_RS1E_E_clISt17integral_constantImLm0EESS_EEDaS1C_S1I_ENKUlvE_clEvEUlOS1C_E_EEvS1D_S1F_S1H_EUlS1P_E_EEvS1D_S1F_S1H_ENKUlS1C_S1I_E_clIS1L_ImLm2EESK_EES1N_S1C_S1I_EUlvE_EEEEEE, 24

	.type	.L.str.6,@object        # @.str.6
	.section	.rodata.str1.1,"aMS",@progbits,1
.L.str.6:
	.asciz	") l5\n"
	.size	.L.str.6, 6

	.type	.L.str.7,@object        # @.str.7
.L.str.7:
	.asciz	"l4\n"
	.size	.L.str.7, 4

	.type	_ZTVNSt6thread11_State_implINS_8_InvokerISt5tupleIJZZN8node_andIJ8node_seqIS3_IJS4_I4leafIiZ4mainE3$_0ES5_IiZ4mainE3$_1EES4_IS5_IiZ4mainE3$_2ES5_IiZ4mainE3$_3EES4_IS5_IiZ4mainE3$_4ES5_IiZ4mainE3$_5EEEES5_IS2_IJiiiEEZ4mainE4$_10EES4_IS3_IJS4_IS5_IiZ4mainE3$_6ES5_IiZ4mainE3$_7EES4_IS5_IiZ4mainE3$_8ES5_IiZ4mainE3$_9EEEES5_IS2_IJiiEEZ4mainE4$_11EEEE7executeI1SiZ4mainE4$_12EEvRT_OT0_OT1_ENKUlS19_RS1B_E_clISt17integral_constantImLm1EES14_EEDaS19_S1F_EUlvE_EEEEEE,@object # @"_ZTVNSt6thread11_State_implINS_8_InvokerISt5tupleIJZZN8node_andIJ8node_seqIS3_IJS4_I4leafIiZ4mainE3$_0ES5_IiZ4mainE3$_1EES4_IS5_IiZ4mainE3$_2ES5_IiZ4mainE3$_3EES4_IS5_IiZ4mainE3$_4ES5_IiZ4mainE3$_5EEEES5_IS2_IJiiiEEZ4mainE4$_10EES4_IS3_IJS4_IS5_IiZ4mainE3$_6ES5_IiZ4mainE3$_7EES4_IS5_IiZ4mainE3$_8ES5_IiZ4mainE3$_9EEEES5_IS2_IJiiEEZ4mainE4$_11EEEE7executeI1SiZ4mainE4$_12EEvRT_OT0_OT1_ENKUlS19_RS1B_E_clISt17integral_constantImLm1EES14_EEDaS19_S1F_EUlvE_EEEEEE"
	.section	.rodata,"a",@progbits
	.p2align	3
_ZTVNSt6thread11_State_implINS_8_InvokerISt5tupleIJZZN8node_andIJ8node_seqIS3_IJS4_I4leafIiZ4mainE3$_0ES5_IiZ4mainE3$_1EES4_IS5_IiZ4mainE3$_2ES5_IiZ4mainE3$_3EES4_IS5_IiZ4mainE3$_4ES5_IiZ4mainE3$_5EEEES5_IS2_IJiiiEEZ4mainE4$_10EES4_IS3_IJS4_IS5_IiZ4mainE3$_6ES5_IiZ4mainE3$_7EES4_IS5_IiZ4mainE3$_8ES5_IiZ4mainE3$_9EEEES5_IS2_IJiiEEZ4mainE4$_11EEEE7executeI1SiZ4mainE4$_12EEvRT_OT0_OT1_ENKUlS19_RS1B_E_clISt17integral_constantImLm1EES14_EEDaS19_S1F_EUlvE_EEEEEE:
	.quad	0
	.quad	_ZTINSt6thread11_State_implINS_8_InvokerISt5tupleIJZZN8node_andIJ8node_seqIS3_IJS4_I4leafIiZ4mainE3$_0ES5_IiZ4mainE3$_1EES4_IS5_IiZ4mainE3$_2ES5_IiZ4mainE3$_3EES4_IS5_IiZ4mainE3$_4ES5_IiZ4mainE3$_5EEEES5_IS2_IJiiiEEZ4mainE4$_10EES4_IS3_IJS4_IS5_IiZ4mainE3$_6ES5_IiZ4mainE3$_7EES4_IS5_IiZ4mainE3$_8ES5_IiZ4mainE3$_9EEEES5_IS2_IJiiEEZ4mainE4$_11EEEE7executeI1SiZ4mainE4$_12EEvRT_OT0_OT1_ENKUlS19_RS1B_E_clISt17integral_constantImLm1EES14_EEDaS19_S1F_EUlvE_EEEEEE
	.quad	_ZNSt6thread6_StateD2Ev
	.quad	_ZNSt6thread11_State_implINS_8_InvokerISt5tupleIJZZN8node_andIJ8node_seqIS3_IJS4_I4leafIiZ4mainE3$_0ES5_IiZ4mainE3$_1EES4_IS5_IiZ4mainE3$_2ES5_IiZ4mainE3$_3EES4_IS5_IiZ4mainE3$_4ES5_IiZ4mainE3$_5EEEES5_IS2_IJiiiEEZ4mainE4$_10EES4_IS3_IJS4_IS5_IiZ4mainE3$_6ES5_IiZ4mainE3$_7EES4_IS5_IiZ4mainE3$_8ES5_IiZ4mainE3$_9EEEES5_IS2_IJiiEEZ4mainE4$_11EEEE7executeI1SiZ4mainE4$_12EEvRT_OT0_OT1_ENKUlS19_RS1B_E_clISt17integral_constantImLm1EES14_EEDaS19_S1F_EUlvE_EEEEED0Ev
	.quad	_ZNSt6thread11_State_implINS_8_InvokerISt5tupleIJZZN8node_andIJ8node_seqIS3_IJS4_I4leafIiZ4mainE3$_0ES5_IiZ4mainE3$_1EES4_IS5_IiZ4mainE3$_2ES5_IiZ4mainE3$_3EES4_IS5_IiZ4mainE3$_4ES5_IiZ4mainE3$_5EEEES5_IS2_IJiiiEEZ4mainE4$_10EES4_IS3_IJS4_IS5_IiZ4mainE3$_6ES5_IiZ4mainE3$_7EES4_IS5_IiZ4mainE3$_8ES5_IiZ4mainE3$_9EEEES5_IS2_IJiiEEZ4mainE4$_11EEEE7executeI1SiZ4mainE4$_12EEvRT_OT0_OT1_ENKUlS19_RS1B_E_clISt17integral_constantImLm1EES14_EEDaS19_S1F_EUlvE_EEEEE6_M_runEv
	.size	_ZTVNSt6thread11_State_implINS_8_InvokerISt5tupleIJZZN8node_andIJ8node_seqIS3_IJS4_I4leafIiZ4mainE3$_0ES5_IiZ4mainE3$_1EES4_IS5_IiZ4mainE3$_2ES5_IiZ4mainE3$_3EES4_IS5_IiZ4mainE3$_4ES5_IiZ4mainE3$_5EEEES5_IS2_IJiiiEEZ4mainE4$_10EES4_IS3_IJS4_IS5_IiZ4mainE3$_6ES5_IiZ4mainE3$_7EES4_IS5_IiZ4mainE3$_8ES5_IiZ4mainE3$_9EEEES5_IS2_IJiiEEZ4mainE4$_11EEEE7executeI1SiZ4mainE4$_12EEvRT_OT0_OT1_ENKUlS19_RS1B_E_clISt17integral_constantImLm1EES14_EEDaS19_S1F_EUlvE_EEEEEE, 40

	.type	_ZTSNSt6thread11_State_implINS_8_InvokerISt5tupleIJZZN8node_andIJ8node_seqIS3_IJS4_I4leafIiZ4mainE3$_0ES5_IiZ4mainE3$_1EES4_IS5_IiZ4mainE3$_2ES5_IiZ4mainE3$_3EES4_IS5_IiZ4mainE3$_4ES5_IiZ4mainE3$_5EEEES5_IS2_IJiiiEEZ4mainE4$_10EES4_IS3_IJS4_IS5_IiZ4mainE3$_6ES5_IiZ4mainE3$_7EES4_IS5_IiZ4mainE3$_8ES5_IiZ4mainE3$_9EEEES5_IS2_IJiiEEZ4mainE4$_11EEEE7executeI1SiZ4mainE4$_12EEvRT_OT0_OT1_ENKUlS19_RS1B_E_clISt17integral_constantImLm1EES14_EEDaS19_S1F_EUlvE_EEEEEE,@object # @"_ZTSNSt6thread11_State_implINS_8_InvokerISt5tupleIJZZN8node_andIJ8node_seqIS3_IJS4_I4leafIiZ4mainE3$_0ES5_IiZ4mainE3$_1EES4_IS5_IiZ4mainE3$_2ES5_IiZ4mainE3$_3EES4_IS5_IiZ4mainE3$_4ES5_IiZ4mainE3$_5EEEES5_IS2_IJiiiEEZ4mainE4$_10EES4_IS3_IJS4_IS5_IiZ4mainE3$_6ES5_IiZ4mainE3$_7EES4_IS5_IiZ4mainE3$_8ES5_IiZ4mainE3$_9EEEES5_IS2_IJiiEEZ4mainE4$_11EEEE7executeI1SiZ4mainE4$_12EEvRT_OT0_OT1_ENKUlS19_RS1B_E_clISt17integral_constantImLm1EES14_EEDaS19_S1F_EUlvE_EEEEEE"
	.p2align	4
_ZTSNSt6thread11_State_implINS_8_InvokerISt5tupleIJZZN8node_andIJ8node_seqIS3_IJS4_I4leafIiZ4mainE3$_0ES5_IiZ4mainE3$_1EES4_IS5_IiZ4mainE3$_2ES5_IiZ4mainE3$_3EES4_IS5_IiZ4mainE3$_4ES5_IiZ4mainE3$_5EEEES5_IS2_IJiiiEEZ4mainE4$_10EES4_IS3_IJS4_IS5_IiZ4mainE3$_6ES5_IiZ4mainE3$_7EES4_IS5_IiZ4mainE3$_8ES5_IiZ4mainE3$_9EEEES5_IS2_IJiiEEZ4mainE4$_11EEEE7executeI1SiZ4mainE4$_12EEvRT_OT0_OT1_ENKUlS19_RS1B_E_clISt17integral_constantImLm1EES14_EEDaS19_S1F_EUlvE_EEEEEE:
	.asciz	"NSt6thread11_State_implINS_8_InvokerISt5tupleIJZZN8node_andIJ8node_seqIS3_IJS4_I4leafIiZ4mainE3$_0ES5_IiZ4mainE3$_1EES4_IS5_IiZ4mainE3$_2ES5_IiZ4mainE3$_3EES4_IS5_IiZ4mainE3$_4ES5_IiZ4mainE3$_5EEEES5_IS2_IJiiiEEZ4mainE4$_10EES4_IS3_IJS4_IS5_IiZ4mainE3$_6ES5_IiZ4mainE3$_7EES4_IS5_IiZ4mainE3$_8ES5_IiZ4mainE3$_9EEEES5_IS2_IJiiEEZ4mainE4$_11EEEE7executeI1SiZ4mainE4$_12EEvRT_OT0_OT1_ENKUlS19_RS1B_E_clISt17integral_constantImLm1EES14_EEDaS19_S1F_EUlvE_EEEEEE"
	.size	_ZTSNSt6thread11_State_implINS_8_InvokerISt5tupleIJZZN8node_andIJ8node_seqIS3_IJS4_I4leafIiZ4mainE3$_0ES5_IiZ4mainE3$_1EES4_IS5_IiZ4mainE3$_2ES5_IiZ4mainE3$_3EES4_IS5_IiZ4mainE3$_4ES5_IiZ4mainE3$_5EEEES5_IS2_IJiiiEEZ4mainE4$_10EES4_IS3_IJS4_IS5_IiZ4mainE3$_6ES5_IiZ4mainE3$_7EES4_IS5_IiZ4mainE3$_8ES5_IiZ4mainE3$_9EEEES5_IS2_IJiiEEZ4mainE4$_11EEEE7executeI1SiZ4mainE4$_12EEvRT_OT0_OT1_ENKUlS19_RS1B_E_clISt17integral_constantImLm1EES14_EEDaS19_S1F_EUlvE_EEEEEE, 457

	.type	_ZTINSt6thread11_State_implINS_8_InvokerISt5tupleIJZZN8node_andIJ8node_seqIS3_IJS4_I4leafIiZ4mainE3$_0ES5_IiZ4mainE3$_1EES4_IS5_IiZ4mainE3$_2ES5_IiZ4mainE3$_3EES4_IS5_IiZ4mainE3$_4ES5_IiZ4mainE3$_5EEEES5_IS2_IJiiiEEZ4mainE4$_10EES4_IS3_IJS4_IS5_IiZ4mainE3$_6ES5_IiZ4mainE3$_7EES4_IS5_IiZ4mainE3$_8ES5_IiZ4mainE3$_9EEEES5_IS2_IJiiEEZ4mainE4$_11EEEE7executeI1SiZ4mainE4$_12EEvRT_OT0_OT1_ENKUlS19_RS1B_E_clISt17integral_constantImLm1EES14_EEDaS19_S1F_EUlvE_EEEEEE,@object # @"_ZTINSt6thread11_State_implINS_8_InvokerISt5tupleIJZZN8node_andIJ8node_seqIS3_IJS4_I4leafIiZ4mainE3$_0ES5_IiZ4mainE3$_1EES4_IS5_IiZ4mainE3$_2ES5_IiZ4mainE3$_3EES4_IS5_IiZ4mainE3$_4ES5_IiZ4mainE3$_5EEEES5_IS2_IJiiiEEZ4mainE4$_10EES4_IS3_IJS4_IS5_IiZ4mainE3$_6ES5_IiZ4mainE3$_7EES4_IS5_IiZ4mainE3$_8ES5_IiZ4mainE3$_9EEEES5_IS2_IJiiEEZ4mainE4$_11EEEE7executeI1SiZ4mainE4$_12EEvRT_OT0_OT1_ENKUlS19_RS1B_E_clISt17integral_constantImLm1EES14_EEDaS19_S1F_EUlvE_EEEEEE"
	.p2align	4
_ZTINSt6thread11_State_implINS_8_InvokerISt5tupleIJZZN8node_andIJ8node_seqIS3_IJS4_I4leafIiZ4mainE3$_0ES5_IiZ4mainE3$_1EES4_IS5_IiZ4mainE3$_2ES5_IiZ4mainE3$_3EES4_IS5_IiZ4mainE3$_4ES5_IiZ4mainE3$_5EEEES5_IS2_IJiiiEEZ4mainE4$_10EES4_IS3_IJS4_IS5_IiZ4mainE3$_6ES5_IiZ4mainE3$_7EES4_IS5_IiZ4mainE3$_8ES5_IiZ4mainE3$_9EEEES5_IS2_IJiiEEZ4mainE4$_11EEEE7executeI1SiZ4mainE4$_12EEvRT_OT0_OT1_ENKUlS19_RS1B_E_clISt17integral_constantImLm1EES14_EEDaS19_S1F_EUlvE_EEEEEE:
	.quad	_ZTVN10__cxxabiv120__si_class_type_infoE+16
	.quad	_ZTSNSt6thread11_State_implINS_8_InvokerISt5tupleIJZZN8node_andIJ8node_seqIS3_IJS4_I4leafIiZ4mainE3$_0ES5_IiZ4mainE3$_1EES4_IS5_IiZ4mainE3$_2ES5_IiZ4mainE3$_3EES4_IS5_IiZ4mainE3$_4ES5_IiZ4mainE3$_5EEEES5_IS2_IJiiiEEZ4mainE4$_10EES4_IS3_IJS4_IS5_IiZ4mainE3$_6ES5_IiZ4mainE3$_7EES4_IS5_IiZ4mainE3$_8ES5_IiZ4mainE3$_9EEEES5_IS2_IJiiEEZ4mainE4$_11EEEE7executeI1SiZ4mainE4$_12EEvRT_OT0_OT1_ENKUlS19_RS1B_E_clISt17integral_constantImLm1EES14_EEDaS19_S1F_EUlvE_EEEEEE
	.quad	_ZTINSt6thread6_StateE
	.size	_ZTINSt6thread11_State_implINS_8_InvokerISt5tupleIJZZN8node_andIJ8node_seqIS3_IJS4_I4leafIiZ4mainE3$_0ES5_IiZ4mainE3$_1EES4_IS5_IiZ4mainE3$_2ES5_IiZ4mainE3$_3EES4_IS5_IiZ4mainE3$_4ES5_IiZ4mainE3$_5EEEES5_IS2_IJiiiEEZ4mainE4$_10EES4_IS3_IJS4_IS5_IiZ4mainE3$_6ES5_IiZ4mainE3$_7EES4_IS5_IiZ4mainE3$_8ES5_IiZ4mainE3$_9EEEES5_IS2_IJiiEEZ4mainE4$_11EEEE7executeI1SiZ4mainE4$_12EEvRT_OT0_OT1_ENKUlS19_RS1B_E_clISt17integral_constantImLm1EES14_EEDaS19_S1F_EUlvE_EEEEEE, 24

	.type	_ZTVNSt6thread11_State_implINS_8_InvokerISt5tupleIJZZN8node_andIJ8node_seqI4leafIiZ4mainE3$_6ES5_IiZ4mainE3$_7EES4_IS5_IiZ4mainE3$_8ES5_IiZ4mainE3$_9EEEE7executeI1SRiZNS4_ISG_S5_IS2_IJiiEEZ4mainE4$_11EE7executeISI_SJ_ZZZNS3_IJS4_IS3_IJS4_IS5_IiZ4mainE3$_0ES5_IiZ4mainE3$_1EES4_IS5_IiZ4mainE3$_2ES5_IiZ4mainE3$_3EES4_IS5_IiZ4mainE3$_4ES5_IiZ4mainE3$_5EEEES5_IS2_IJiiiEEZ4mainE4$_10EESN_EE7executeISI_iZ4mainE4$_12EEvRT_OT0_OT1_ENKUlS1C_RS1E_E_clISt17integral_constantImLm1EESN_EEDaS1C_S1I_ENKUlvE_clEvEUlOS1C_E_EEvS1D_S1F_S1H_EUlS1P_E_EEvS1D_S1F_S1H_ENKUlS1C_S1I_E_clIS1L_ImLm0EESA_EES1N_S1C_S1I_EUlvE_EEEEEE,@object # @"_ZTVNSt6thread11_State_implINS_8_InvokerISt5tupleIJZZN8node_andIJ8node_seqI4leafIiZ4mainE3$_6ES5_IiZ4mainE3$_7EES4_IS5_IiZ4mainE3$_8ES5_IiZ4mainE3$_9EEEE7executeI1SRiZNS4_ISG_S5_IS2_IJiiEEZ4mainE4$_11EE7executeISI_SJ_ZZZNS3_IJS4_IS3_IJS4_IS5_IiZ4mainE3$_0ES5_IiZ4mainE3$_1EES4_IS5_IiZ4mainE3$_2ES5_IiZ4mainE3$_3EES4_IS5_IiZ4mainE3$_4ES5_IiZ4mainE3$_5EEEES5_IS2_IJiiiEEZ4mainE4$_10EESN_EE7executeISI_iZ4mainE4$_12EEvRT_OT0_OT1_ENKUlS1C_RS1E_E_clISt17integral_constantImLm1EESN_EEDaS1C_S1I_ENKUlvE_clEvEUlOS1C_E_EEvS1D_S1F_S1H_EUlS1P_E_EEvS1D_S1F_S1H_ENKUlS1C_S1I_E_clIS1L_ImLm0EESA_EES1N_S1C_S1I_EUlvE_EEEEEE"
	.p2align	3
_ZTVNSt6thread11_State_implINS_8_InvokerISt5tupleIJZZN8node_andIJ8node_seqI4leafIiZ4mainE3$_6ES5_IiZ4mainE3$_7EES4_IS5_IiZ4mainE3$_8ES5_IiZ4mainE3$_9EEEE7executeI1SRiZNS4_ISG_S5_IS2_IJiiEEZ4mainE4$_11EE7executeISI_SJ_ZZZNS3_IJS4_IS3_IJS4_IS5_IiZ4mainE3$_0ES5_IiZ4mainE3$_1EES4_IS5_IiZ4mainE3$_2ES5_IiZ4mainE3$_3EES4_IS5_IiZ4mainE3$_4ES5_IiZ4mainE3$_5EEEES5_IS2_IJiiiEEZ4mainE4$_10EESN_EE7executeISI_iZ4mainE4$_12EEvRT_OT0_OT1_ENKUlS1C_RS1E_E_clISt17integral_constantImLm1EESN_EEDaS1C_S1I_ENKUlvE_clEvEUlOS1C_E_EEvS1D_S1F_S1H_EUlS1P_E_EEvS1D_S1F_S1H_ENKUlS1C_S1I_E_clIS1L_ImLm0EESA_EES1N_S1C_S1I_EUlvE_EEEEEE:
	.quad	0
	.quad	_ZTINSt6thread11_State_implINS_8_InvokerISt5tupleIJZZN8node_andIJ8node_seqI4leafIiZ4mainE3$_6ES5_IiZ4mainE3$_7EES4_IS5_IiZ4mainE3$_8ES5_IiZ4mainE3$_9EEEE7executeI1SRiZNS4_ISG_S5_IS2_IJiiEEZ4mainE4$_11EE7executeISI_SJ_ZZZNS3_IJS4_IS3_IJS4_IS5_IiZ4mainE3$_0ES5_IiZ4mainE3$_1EES4_IS5_IiZ4mainE3$_2ES5_IiZ4mainE3$_3EES4_IS5_IiZ4mainE3$_4ES5_IiZ4mainE3$_5EEEES5_IS2_IJiiiEEZ4mainE4$_10EESN_EE7executeISI_iZ4mainE4$_12EEvRT_OT0_OT1_ENKUlS1C_RS1E_E_clISt17integral_constantImLm1EESN_EEDaS1C_S1I_ENKUlvE_clEvEUlOS1C_E_EEvS1D_S1F_S1H_EUlS1P_E_EEvS1D_S1F_S1H_ENKUlS1C_S1I_E_clIS1L_ImLm0EESA_EES1N_S1C_S1I_EUlvE_EEEEEE
	.quad	_ZNSt6thread6_StateD2Ev
	.quad	_ZNSt6thread11_State_implINS_8_InvokerISt5tupleIJZZN8node_andIJ8node_seqI4leafIiZ4mainE3$_6ES5_IiZ4mainE3$_7EES4_IS5_IiZ4mainE3$_8ES5_IiZ4mainE3$_9EEEE7executeI1SRiZNS4_ISG_S5_IS2_IJiiEEZ4mainE4$_11EE7executeISI_SJ_ZZZNS3_IJS4_IS3_IJS4_IS5_IiZ4mainE3$_0ES5_IiZ4mainE3$_1EES4_IS5_IiZ4mainE3$_2ES5_IiZ4mainE3$_3EES4_IS5_IiZ4mainE3$_4ES5_IiZ4mainE3$_5EEEES5_IS2_IJiiiEEZ4mainE4$_10EESN_EE7executeISI_iZ4mainE4$_12EEvRT_OT0_OT1_ENKUlS1C_RS1E_E_clISt17integral_constantImLm1EESN_EEDaS1C_S1I_ENKUlvE_clEvEUlOS1C_E_EEvS1D_S1F_S1H_EUlS1P_E_EEvS1D_S1F_S1H_ENKUlS1C_S1I_E_clIS1L_ImLm0EESA_EES1N_S1C_S1I_EUlvE_EEEEED0Ev
	.quad	_ZNSt6thread11_State_implINS_8_InvokerISt5tupleIJZZN8node_andIJ8node_seqI4leafIiZ4mainE3$_6ES5_IiZ4mainE3$_7EES4_IS5_IiZ4mainE3$_8ES5_IiZ4mainE3$_9EEEE7executeI1SRiZNS4_ISG_S5_IS2_IJiiEEZ4mainE4$_11EE7executeISI_SJ_ZZZNS3_IJS4_IS3_IJS4_IS5_IiZ4mainE3$_0ES5_IiZ4mainE3$_1EES4_IS5_IiZ4mainE3$_2ES5_IiZ4mainE3$_3EES4_IS5_IiZ4mainE3$_4ES5_IiZ4mainE3$_5EEEES5_IS2_IJiiiEEZ4mainE4$_10EESN_EE7executeISI_iZ4mainE4$_12EEvRT_OT0_OT1_ENKUlS1C_RS1E_E_clISt17integral_constantImLm1EESN_EEDaS1C_S1I_ENKUlvE_clEvEUlOS1C_E_EEvS1D_S1F_S1H_EUlS1P_E_EEvS1D_S1F_S1H_ENKUlS1C_S1I_E_clIS1L_ImLm0EESA_EES1N_S1C_S1I_EUlvE_EEEEE6_M_runEv
	.size	_ZTVNSt6thread11_State_implINS_8_InvokerISt5tupleIJZZN8node_andIJ8node_seqI4leafIiZ4mainE3$_6ES5_IiZ4mainE3$_7EES4_IS5_IiZ4mainE3$_8ES5_IiZ4mainE3$_9EEEE7executeI1SRiZNS4_ISG_S5_IS2_IJiiEEZ4mainE4$_11EE7executeISI_SJ_ZZZNS3_IJS4_IS3_IJS4_IS5_IiZ4mainE3$_0ES5_IiZ4mainE3$_1EES4_IS5_IiZ4mainE3$_2ES5_IiZ4mainE3$_3EES4_IS5_IiZ4mainE3$_4ES5_IiZ4mainE3$_5EEEES5_IS2_IJiiiEEZ4mainE4$_10EESN_EE7executeISI_iZ4mainE4$_12EEvRT_OT0_OT1_ENKUlS1C_RS1E_E_clISt17integral_constantImLm1EESN_EEDaS1C_S1I_ENKUlvE_clEvEUlOS1C_E_EEvS1D_S1F_S1H_EUlS1P_E_EEvS1D_S1F_S1H_ENKUlS1C_S1I_E_clIS1L_ImLm0EESA_EES1N_S1C_S1I_EUlvE_EEEEEE, 40

	.type	_ZTSNSt6thread11_State_implINS_8_InvokerISt5tupleIJZZN8node_andIJ8node_seqI4leafIiZ4mainE3$_6ES5_IiZ4mainE3$_7EES4_IS5_IiZ4mainE3$_8ES5_IiZ4mainE3$_9EEEE7executeI1SRiZNS4_ISG_S5_IS2_IJiiEEZ4mainE4$_11EE7executeISI_SJ_ZZZNS3_IJS4_IS3_IJS4_IS5_IiZ4mainE3$_0ES5_IiZ4mainE3$_1EES4_IS5_IiZ4mainE3$_2ES5_IiZ4mainE3$_3EES4_IS5_IiZ4mainE3$_4ES5_IiZ4mainE3$_5EEEES5_IS2_IJiiiEEZ4mainE4$_10EESN_EE7executeISI_iZ4mainE4$_12EEvRT_OT0_OT1_ENKUlS1C_RS1E_E_clISt17integral_constantImLm1EESN_EEDaS1C_S1I_ENKUlvE_clEvEUlOS1C_E_EEvS1D_S1F_S1H_EUlS1P_E_EEvS1D_S1F_S1H_ENKUlS1C_S1I_E_clIS1L_ImLm0EESA_EES1N_S1C_S1I_EUlvE_EEEEEE,@object # @"_ZTSNSt6thread11_State_implINS_8_InvokerISt5tupleIJZZN8node_andIJ8node_seqI4leafIiZ4mainE3$_6ES5_IiZ4mainE3$_7EES4_IS5_IiZ4mainE3$_8ES5_IiZ4mainE3$_9EEEE7executeI1SRiZNS4_ISG_S5_IS2_IJiiEEZ4mainE4$_11EE7executeISI_SJ_ZZZNS3_IJS4_IS3_IJS4_IS5_IiZ4mainE3$_0ES5_IiZ4mainE3$_1EES4_IS5_IiZ4mainE3$_2ES5_IiZ4mainE3$_3EES4_IS5_IiZ4mainE3$_4ES5_IiZ4mainE3$_5EEEES5_IS2_IJiiiEEZ4mainE4$_10EESN_EE7executeISI_iZ4mainE4$_12EEvRT_OT0_OT1_ENKUlS1C_RS1E_E_clISt17integral_constantImLm1EESN_EEDaS1C_S1I_ENKUlvE_clEvEUlOS1C_E_EEvS1D_S1F_S1H_EUlS1P_E_EEvS1D_S1F_S1H_ENKUlS1C_S1I_E_clIS1L_ImLm0EESA_EES1N_S1C_S1I_EUlvE_EEEEEE"
	.p2align	4
_ZTSNSt6thread11_State_implINS_8_InvokerISt5tupleIJZZN8node_andIJ8node_seqI4leafIiZ4mainE3$_6ES5_IiZ4mainE3$_7EES4_IS5_IiZ4mainE3$_8ES5_IiZ4mainE3$_9EEEE7executeI1SRiZNS4_ISG_S5_IS2_IJiiEEZ4mainE4$_11EE7executeISI_SJ_ZZZNS3_IJS4_IS3_IJS4_IS5_IiZ4mainE3$_0ES5_IiZ4mainE3$_1EES4_IS5_IiZ4mainE3$_2ES5_IiZ4mainE3$_3EES4_IS5_IiZ4mainE3$_4ES5_IiZ4mainE3$_5EEEES5_IS2_IJiiiEEZ4mainE4$_10EESN_EE7executeISI_iZ4mainE4$_12EEvRT_OT0_OT1_ENKUlS1C_RS1E_E_clISt17integral_constantImLm1EESN_EEDaS1C_S1I_ENKUlvE_clEvEUlOS1C_E_EEvS1D_S1F_S1H_EUlS1P_E_EEvS1D_S1F_S1H_ENKUlS1C_S1I_E_clIS1L_ImLm0EESA_EES1N_S1C_S1I_EUlvE_EEEEEE:
	.asciz	"NSt6thread11_State_implINS_8_InvokerISt5tupleIJZZN8node_andIJ8node_seqI4leafIiZ4mainE3$_6ES5_IiZ4mainE3$_7EES4_IS5_IiZ4mainE3$_8ES5_IiZ4mainE3$_9EEEE7executeI1SRiZNS4_ISG_S5_IS2_IJiiEEZ4mainE4$_11EE7executeISI_SJ_ZZZNS3_IJS4_IS3_IJS4_IS5_IiZ4mainE3$_0ES5_IiZ4mainE3$_1EES4_IS5_IiZ4mainE3$_2ES5_IiZ4mainE3$_3EES4_IS5_IiZ4mainE3$_4ES5_IiZ4mainE3$_5EEEES5_IS2_IJiiiEEZ4mainE4$_10EESN_EE7executeISI_iZ4mainE4$_12EEvRT_OT0_OT1_ENKUlS1C_RS1E_E_clISt17integral_constantImLm1EESN_EEDaS1C_S1I_ENKUlvE_clEvEUlOS1C_E_EEvS1D_S1F_S1H_EUlS1P_E_EEvS1D_S1F_S1H_ENKUlS1C_S1I_E_clIS1L_ImLm0EESA_EES1N_S1C_S1I_EUlvE_EEEEEE"
	.size	_ZTSNSt6thread11_State_implINS_8_InvokerISt5tupleIJZZN8node_andIJ8node_seqI4leafIiZ4mainE3$_6ES5_IiZ4mainE3$_7EES4_IS5_IiZ4mainE3$_8ES5_IiZ4mainE3$_9EEEE7executeI1SRiZNS4_ISG_S5_IS2_IJiiEEZ4mainE4$_11EE7executeISI_SJ_ZZZNS3_IJS4_IS3_IJS4_IS5_IiZ4mainE3$_0ES5_IiZ4mainE3$_1EES4_IS5_IiZ4mainE3$_2ES5_IiZ4mainE3$_3EES4_IS5_IiZ4mainE3$_4ES5_IiZ4mainE3$_5EEEES5_IS2_IJiiiEEZ4mainE4$_10EESN_EE7executeISI_iZ4mainE4$_12EEvRT_OT0_OT1_ENKUlS1C_RS1E_E_clISt17integral_constantImLm1EESN_EEDaS1C_S1I_ENKUlvE_clEvEUlOS1C_E_EEvS1D_S1F_S1H_EUlS1P_E_EEvS1D_S1F_S1H_ENKUlS1C_S1I_E_clIS1L_ImLm0EESA_EES1N_S1C_S1I_EUlvE_EEEEEE, 604

	.type	_ZTINSt6thread11_State_implINS_8_InvokerISt5tupleIJZZN8node_andIJ8node_seqI4leafIiZ4mainE3$_6ES5_IiZ4mainE3$_7EES4_IS5_IiZ4mainE3$_8ES5_IiZ4mainE3$_9EEEE7executeI1SRiZNS4_ISG_S5_IS2_IJiiEEZ4mainE4$_11EE7executeISI_SJ_ZZZNS3_IJS4_IS3_IJS4_IS5_IiZ4mainE3$_0ES5_IiZ4mainE3$_1EES4_IS5_IiZ4mainE3$_2ES5_IiZ4mainE3$_3EES4_IS5_IiZ4mainE3$_4ES5_IiZ4mainE3$_5EEEES5_IS2_IJiiiEEZ4mainE4$_10EESN_EE7executeISI_iZ4mainE4$_12EEvRT_OT0_OT1_ENKUlS1C_RS1E_E_clISt17integral_constantImLm1EESN_EEDaS1C_S1I_ENKUlvE_clEvEUlOS1C_E_EEvS1D_S1F_S1H_EUlS1P_E_EEvS1D_S1F_S1H_ENKUlS1C_S1I_E_clIS1L_ImLm0EESA_EES1N_S1C_S1I_EUlvE_EEEEEE,@object # @"_ZTINSt6thread11_State_implINS_8_InvokerISt5tupleIJZZN8node_andIJ8node_seqI4leafIiZ4mainE3$_6ES5_IiZ4mainE3$_7EES4_IS5_IiZ4mainE3$_8ES5_IiZ4mainE3$_9EEEE7executeI1SRiZNS4_ISG_S5_IS2_IJiiEEZ4mainE4$_11EE7executeISI_SJ_ZZZNS3_IJS4_IS3_IJS4_IS5_IiZ4mainE3$_0ES5_IiZ4mainE3$_1EES4_IS5_IiZ4mainE3$_2ES5_IiZ4mainE3$_3EES4_IS5_IiZ4mainE3$_4ES5_IiZ4mainE3$_5EEEES5_IS2_IJiiiEEZ4mainE4$_10EESN_EE7executeISI_iZ4mainE4$_12EEvRT_OT0_OT1_ENKUlS1C_RS1E_E_clISt17integral_constantImLm1EESN_EEDaS1C_S1I_ENKUlvE_clEvEUlOS1C_E_EEvS1D_S1F_S1H_EUlS1P_E_EEvS1D_S1F_S1H_ENKUlS1C_S1I_E_clIS1L_ImLm0EESA_EES1N_S1C_S1I_EUlvE_EEEEEE"
	.p2align	4
_ZTINSt6thread11_State_implINS_8_InvokerISt5tupleIJZZN8node_andIJ8node_seqI4leafIiZ4mainE3$_6ES5_IiZ4mainE3$_7EES4_IS5_IiZ4mainE3$_8ES5_IiZ4mainE3$_9EEEE7executeI1SRiZNS4_ISG_S5_IS2_IJiiEEZ4mainE4$_11EE7executeISI_SJ_ZZZNS3_IJS4_IS3_IJS4_IS5_IiZ4mainE3$_0ES5_IiZ4mainE3$_1EES4_IS5_IiZ4mainE3$_2ES5_IiZ4mainE3$_3EES4_IS5_IiZ4mainE3$_4ES5_IiZ4mainE3$_5EEEES5_IS2_IJiiiEEZ4mainE4$_10EESN_EE7executeISI_iZ4mainE4$_12EEvRT_OT0_OT1_ENKUlS1C_RS1E_E_clISt17integral_constantImLm1EESN_EEDaS1C_S1I_ENKUlvE_clEvEUlOS1C_E_EEvS1D_S1F_S1H_EUlS1P_E_EEvS1D_S1F_S1H_ENKUlS1C_S1I_E_clIS1L_ImLm0EESA_EES1N_S1C_S1I_EUlvE_EEEEEE:
	.quad	_ZTVN10__cxxabiv120__si_class_type_infoE+16
	.quad	_ZTSNSt6thread11_State_implINS_8_InvokerISt5tupleIJZZN8node_andIJ8node_seqI4leafIiZ4mainE3$_6ES5_IiZ4mainE3$_7EES4_IS5_IiZ4mainE3$_8ES5_IiZ4mainE3$_9EEEE7executeI1SRiZNS4_ISG_S5_IS2_IJiiEEZ4mainE4$_11EE7executeISI_SJ_ZZZNS3_IJS4_IS3_IJS4_IS5_IiZ4mainE3$_0ES5_IiZ4mainE3$_1EES4_IS5_IiZ4mainE3$_2ES5_IiZ4mainE3$_3EES4_IS5_IiZ4mainE3$_4ES5_IiZ4mainE3$_5EEEES5_IS2_IJiiiEEZ4mainE4$_10EESN_EE7executeISI_iZ4mainE4$_12EEvRT_OT0_OT1_ENKUlS1C_RS1E_E_clISt17integral_constantImLm1EESN_EEDaS1C_S1I_ENKUlvE_clEvEUlOS1C_E_EEvS1D_S1F_S1H_EUlS1P_E_EEvS1D_S1F_S1H_ENKUlS1C_S1I_E_clIS1L_ImLm0EESA_EES1N_S1C_S1I_EUlvE_EEEEEE
	.quad	_ZTINSt6thread6_StateE
	.size	_ZTINSt6thread11_State_implINS_8_InvokerISt5tupleIJZZN8node_andIJ8node_seqI4leafIiZ4mainE3$_6ES5_IiZ4mainE3$_7EES4_IS5_IiZ4mainE3$_8ES5_IiZ4mainE3$_9EEEE7executeI1SRiZNS4_ISG_S5_IS2_IJiiEEZ4mainE4$_11EE7executeISI_SJ_ZZZNS3_IJS4_IS3_IJS4_IS5_IiZ4mainE3$_0ES5_IiZ4mainE3$_1EES4_IS5_IiZ4mainE3$_2ES5_IiZ4mainE3$_3EES4_IS5_IiZ4mainE3$_4ES5_IiZ4mainE3$_5EEEES5_IS2_IJiiiEEZ4mainE4$_10EESN_EE7executeISI_iZ4mainE4$_12EEvRT_OT0_OT1_ENKUlS1C_RS1E_E_clISt17integral_constantImLm1EESN_EEDaS1C_S1I_ENKUlvE_clEvEUlOS1C_E_EEvS1D_S1F_S1H_EUlS1P_E_EEvS1D_S1F_S1H_ENKUlS1C_S1I_E_clIS1L_ImLm0EESA_EES1N_S1C_S1I_EUlvE_EEEEEE, 24

	.type	.L.str.8,@object        # @.str.8
	.section	.rodata.str1.1,"aMS",@progbits,1
.L.str.8:
	.asciz	") l7\n"
	.size	.L.str.8, 6

	.type	.L.str.9,@object        # @.str.9
.L.str.9:
	.asciz	"l6\n"
	.size	.L.str.9, 4

	.type	_ZTVNSt6thread11_State_implINS_8_InvokerISt5tupleIJZZN8node_andIJ8node_seqI4leafIiZ4mainE3$_6ES5_IiZ4mainE3$_7EES4_IS5_IiZ4mainE3$_8ES5_IiZ4mainE3$_9EEEE7executeI1SRiZNS4_ISG_S5_IS2_IJiiEEZ4mainE4$_11EE7executeISI_SJ_ZZZNS3_IJS4_IS3_IJS4_IS5_IiZ4mainE3$_0ES5_IiZ4mainE3$_1EES4_IS5_IiZ4mainE3$_2ES5_IiZ4mainE3$_3EES4_IS5_IiZ4mainE3$_4ES5_IiZ4mainE3$_5EEEES5_IS2_IJiiiEEZ4mainE4$_10EESN_EE7executeISI_iZ4mainE4$_12EEvRT_OT0_OT1_ENKUlS1C_RS1E_E_clISt17integral_constantImLm1EESN_EEDaS1C_S1I_ENKUlvE_clEvEUlOS1C_E_EEvS1D_S1F_S1H_EUlS1P_E_EEvS1D_S1F_S1H_ENKUlS1C_S1I_E_clIS1M_SF_EES1N_S1C_S1I_EUlvE_EEEEEE,@object # @"_ZTVNSt6thread11_State_implINS_8_InvokerISt5tupleIJZZN8node_andIJ8node_seqI4leafIiZ4mainE3$_6ES5_IiZ4mainE3$_7EES4_IS5_IiZ4mainE3$_8ES5_IiZ4mainE3$_9EEEE7executeI1SRiZNS4_ISG_S5_IS2_IJiiEEZ4mainE4$_11EE7executeISI_SJ_ZZZNS3_IJS4_IS3_IJS4_IS5_IiZ4mainE3$_0ES5_IiZ4mainE3$_1EES4_IS5_IiZ4mainE3$_2ES5_IiZ4mainE3$_3EES4_IS5_IiZ4mainE3$_4ES5_IiZ4mainE3$_5EEEES5_IS2_IJiiiEEZ4mainE4$_10EESN_EE7executeISI_iZ4mainE4$_12EEvRT_OT0_OT1_ENKUlS1C_RS1E_E_clISt17integral_constantImLm1EESN_EEDaS1C_S1I_ENKUlvE_clEvEUlOS1C_E_EEvS1D_S1F_S1H_EUlS1P_E_EEvS1D_S1F_S1H_ENKUlS1C_S1I_E_clIS1M_SF_EES1N_S1C_S1I_EUlvE_EEEEEE"
	.section	.rodata,"a",@progbits
